
rtarget:     file format elf64-x86-64


Disassembly of section .init:

0000000000400c50 <_init>:
  400c50:	48 83 ec 08          	sub    $0x8,%rsp
  400c54:	48 8b 05 9d 43 20 00 	mov    0x20439d(%rip),%rax        # 604ff8 <_DYNAMIC+0x1e0>
  400c5b:	48 85 c0             	test   %rax,%rax
  400c5e:	74 05                	je     400c65 <_init+0x15>
  400c60:	e8 1b 02 00 00       	callq  400e80 <socket@plt+0x10>
  400c65:	48 83 c4 08          	add    $0x8,%rsp
  400c69:	c3                   	retq   

Disassembly of section .plt:

0000000000400c70 <__errno_location@plt-0x10>:
  400c70:	ff 35 92 43 20 00    	pushq  0x204392(%rip)        # 605008 <_GLOBAL_OFFSET_TABLE_+0x8>
  400c76:	ff 25 94 43 20 00    	jmpq   *0x204394(%rip)        # 605010 <_GLOBAL_OFFSET_TABLE_+0x10>
  400c7c:	0f 1f 40 00          	nopl   0x0(%rax)

0000000000400c80 <__errno_location@plt>:
  400c80:	ff 25 92 43 20 00    	jmpq   *0x204392(%rip)        # 605018 <_GLOBAL_OFFSET_TABLE_+0x18>
  400c86:	68 00 00 00 00       	pushq  $0x0
  400c8b:	e9 e0 ff ff ff       	jmpq   400c70 <_init+0x20>

0000000000400c90 <srandom@plt>:
  400c90:	ff 25 8a 43 20 00    	jmpq   *0x20438a(%rip)        # 605020 <_GLOBAL_OFFSET_TABLE_+0x20>
  400c96:	68 01 00 00 00       	pushq  $0x1
  400c9b:	e9 d0 ff ff ff       	jmpq   400c70 <_init+0x20>

0000000000400ca0 <strncmp@plt>:
  400ca0:	ff 25 82 43 20 00    	jmpq   *0x204382(%rip)        # 605028 <_GLOBAL_OFFSET_TABLE_+0x28>
  400ca6:	68 02 00 00 00       	pushq  $0x2
  400cab:	e9 c0 ff ff ff       	jmpq   400c70 <_init+0x20>

0000000000400cb0 <strcpy@plt>:
  400cb0:	ff 25 7a 43 20 00    	jmpq   *0x20437a(%rip)        # 605030 <_GLOBAL_OFFSET_TABLE_+0x30>
  400cb6:	68 03 00 00 00       	pushq  $0x3
  400cbb:	e9 b0 ff ff ff       	jmpq   400c70 <_init+0x20>

0000000000400cc0 <puts@plt>:
  400cc0:	ff 25 72 43 20 00    	jmpq   *0x204372(%rip)        # 605038 <_GLOBAL_OFFSET_TABLE_+0x38>
  400cc6:	68 04 00 00 00       	pushq  $0x4
  400ccb:	e9 a0 ff ff ff       	jmpq   400c70 <_init+0x20>

0000000000400cd0 <write@plt>:
  400cd0:	ff 25 6a 43 20 00    	jmpq   *0x20436a(%rip)        # 605040 <_GLOBAL_OFFSET_TABLE_+0x40>
  400cd6:	68 05 00 00 00       	pushq  $0x5
  400cdb:	e9 90 ff ff ff       	jmpq   400c70 <_init+0x20>

0000000000400ce0 <mmap@plt>:
  400ce0:	ff 25 62 43 20 00    	jmpq   *0x204362(%rip)        # 605048 <_GLOBAL_OFFSET_TABLE_+0x48>
  400ce6:	68 06 00 00 00       	pushq  $0x6
  400ceb:	e9 80 ff ff ff       	jmpq   400c70 <_init+0x20>

0000000000400cf0 <printf@plt>:
  400cf0:	ff 25 5a 43 20 00    	jmpq   *0x20435a(%rip)        # 605050 <_GLOBAL_OFFSET_TABLE_+0x50>
  400cf6:	68 07 00 00 00       	pushq  $0x7
  400cfb:	e9 70 ff ff ff       	jmpq   400c70 <_init+0x20>

0000000000400d00 <memset@plt>:
  400d00:	ff 25 52 43 20 00    	jmpq   *0x204352(%rip)        # 605058 <_GLOBAL_OFFSET_TABLE_+0x58>
  400d06:	68 08 00 00 00       	pushq  $0x8
  400d0b:	e9 60 ff ff ff       	jmpq   400c70 <_init+0x20>

0000000000400d10 <alarm@plt>:
  400d10:	ff 25 4a 43 20 00    	jmpq   *0x20434a(%rip)        # 605060 <_GLOBAL_OFFSET_TABLE_+0x60>
  400d16:	68 09 00 00 00       	pushq  $0x9
  400d1b:	e9 50 ff ff ff       	jmpq   400c70 <_init+0x20>

0000000000400d20 <close@plt>:
  400d20:	ff 25 42 43 20 00    	jmpq   *0x204342(%rip)        # 605068 <_GLOBAL_OFFSET_TABLE_+0x68>
  400d26:	68 0a 00 00 00       	pushq  $0xa
  400d2b:	e9 40 ff ff ff       	jmpq   400c70 <_init+0x20>

0000000000400d30 <read@plt>:
  400d30:	ff 25 3a 43 20 00    	jmpq   *0x20433a(%rip)        # 605070 <_GLOBAL_OFFSET_TABLE_+0x70>
  400d36:	68 0b 00 00 00       	pushq  $0xb
  400d3b:	e9 30 ff ff ff       	jmpq   400c70 <_init+0x20>

0000000000400d40 <__libc_start_main@plt>:
  400d40:	ff 25 32 43 20 00    	jmpq   *0x204332(%rip)        # 605078 <_GLOBAL_OFFSET_TABLE_+0x78>
  400d46:	68 0c 00 00 00       	pushq  $0xc
  400d4b:	e9 20 ff ff ff       	jmpq   400c70 <_init+0x20>

0000000000400d50 <signal@plt>:
  400d50:	ff 25 2a 43 20 00    	jmpq   *0x20432a(%rip)        # 605080 <_GLOBAL_OFFSET_TABLE_+0x80>
  400d56:	68 0d 00 00 00       	pushq  $0xd
  400d5b:	e9 10 ff ff ff       	jmpq   400c70 <_init+0x20>

0000000000400d60 <gethostbyname@plt>:
  400d60:	ff 25 22 43 20 00    	jmpq   *0x204322(%rip)        # 605088 <_GLOBAL_OFFSET_TABLE_+0x88>
  400d66:	68 0e 00 00 00       	pushq  $0xe
  400d6b:	e9 00 ff ff ff       	jmpq   400c70 <_init+0x20>

0000000000400d70 <fprintf@plt>:
  400d70:	ff 25 1a 43 20 00    	jmpq   *0x20431a(%rip)        # 605090 <_GLOBAL_OFFSET_TABLE_+0x90>
  400d76:	68 0f 00 00 00       	pushq  $0xf
  400d7b:	e9 f0 fe ff ff       	jmpq   400c70 <_init+0x20>

0000000000400d80 <strtol@plt>:
  400d80:	ff 25 12 43 20 00    	jmpq   *0x204312(%rip)        # 605098 <_GLOBAL_OFFSET_TABLE_+0x98>
  400d86:	68 10 00 00 00       	pushq  $0x10
  400d8b:	e9 e0 fe ff ff       	jmpq   400c70 <_init+0x20>

0000000000400d90 <memcpy@plt>:
  400d90:	ff 25 0a 43 20 00    	jmpq   *0x20430a(%rip)        # 6050a0 <_GLOBAL_OFFSET_TABLE_+0xa0>
  400d96:	68 11 00 00 00       	pushq  $0x11
  400d9b:	e9 d0 fe ff ff       	jmpq   400c70 <_init+0x20>

0000000000400da0 <time@plt>:
  400da0:	ff 25 02 43 20 00    	jmpq   *0x204302(%rip)        # 6050a8 <_GLOBAL_OFFSET_TABLE_+0xa8>
  400da6:	68 12 00 00 00       	pushq  $0x12
  400dab:	e9 c0 fe ff ff       	jmpq   400c70 <_init+0x20>

0000000000400db0 <random@plt>:
  400db0:	ff 25 fa 42 20 00    	jmpq   *0x2042fa(%rip)        # 6050b0 <_GLOBAL_OFFSET_TABLE_+0xb0>
  400db6:	68 13 00 00 00       	pushq  $0x13
  400dbb:	e9 b0 fe ff ff       	jmpq   400c70 <_init+0x20>

0000000000400dc0 <_IO_getc@plt>:
  400dc0:	ff 25 f2 42 20 00    	jmpq   *0x2042f2(%rip)        # 6050b8 <_GLOBAL_OFFSET_TABLE_+0xb8>
  400dc6:	68 14 00 00 00       	pushq  $0x14
  400dcb:	e9 a0 fe ff ff       	jmpq   400c70 <_init+0x20>

0000000000400dd0 <__isoc99_sscanf@plt>:
  400dd0:	ff 25 ea 42 20 00    	jmpq   *0x2042ea(%rip)        # 6050c0 <_GLOBAL_OFFSET_TABLE_+0xc0>
  400dd6:	68 15 00 00 00       	pushq  $0x15
  400ddb:	e9 90 fe ff ff       	jmpq   400c70 <_init+0x20>

0000000000400de0 <munmap@plt>:
  400de0:	ff 25 e2 42 20 00    	jmpq   *0x2042e2(%rip)        # 6050c8 <_GLOBAL_OFFSET_TABLE_+0xc8>
  400de6:	68 16 00 00 00       	pushq  $0x16
  400deb:	e9 80 fe ff ff       	jmpq   400c70 <_init+0x20>

0000000000400df0 <bcopy@plt>:
  400df0:	ff 25 da 42 20 00    	jmpq   *0x2042da(%rip)        # 6050d0 <_GLOBAL_OFFSET_TABLE_+0xd0>
  400df6:	68 17 00 00 00       	pushq  $0x17
  400dfb:	e9 70 fe ff ff       	jmpq   400c70 <_init+0x20>

0000000000400e00 <fopen@plt>:
  400e00:	ff 25 d2 42 20 00    	jmpq   *0x2042d2(%rip)        # 6050d8 <_GLOBAL_OFFSET_TABLE_+0xd8>
  400e06:	68 18 00 00 00       	pushq  $0x18
  400e0b:	e9 60 fe ff ff       	jmpq   400c70 <_init+0x20>

0000000000400e10 <getopt@plt>:
  400e10:	ff 25 ca 42 20 00    	jmpq   *0x2042ca(%rip)        # 6050e0 <_GLOBAL_OFFSET_TABLE_+0xe0>
  400e16:	68 19 00 00 00       	pushq  $0x19
  400e1b:	e9 50 fe ff ff       	jmpq   400c70 <_init+0x20>

0000000000400e20 <strtoul@plt>:
  400e20:	ff 25 c2 42 20 00    	jmpq   *0x2042c2(%rip)        # 6050e8 <_GLOBAL_OFFSET_TABLE_+0xe8>
  400e26:	68 1a 00 00 00       	pushq  $0x1a
  400e2b:	e9 40 fe ff ff       	jmpq   400c70 <_init+0x20>

0000000000400e30 <gethostname@plt>:
  400e30:	ff 25 ba 42 20 00    	jmpq   *0x2042ba(%rip)        # 6050f0 <_GLOBAL_OFFSET_TABLE_+0xf0>
  400e36:	68 1b 00 00 00       	pushq  $0x1b
  400e3b:	e9 30 fe ff ff       	jmpq   400c70 <_init+0x20>

0000000000400e40 <sprintf@plt>:
  400e40:	ff 25 b2 42 20 00    	jmpq   *0x2042b2(%rip)        # 6050f8 <_GLOBAL_OFFSET_TABLE_+0xf8>
  400e46:	68 1c 00 00 00       	pushq  $0x1c
  400e4b:	e9 20 fe ff ff       	jmpq   400c70 <_init+0x20>

0000000000400e50 <exit@plt>:
  400e50:	ff 25 aa 42 20 00    	jmpq   *0x2042aa(%rip)        # 605100 <_GLOBAL_OFFSET_TABLE_+0x100>
  400e56:	68 1d 00 00 00       	pushq  $0x1d
  400e5b:	e9 10 fe ff ff       	jmpq   400c70 <_init+0x20>

0000000000400e60 <connect@plt>:
  400e60:	ff 25 a2 42 20 00    	jmpq   *0x2042a2(%rip)        # 605108 <_GLOBAL_OFFSET_TABLE_+0x108>
  400e66:	68 1e 00 00 00       	pushq  $0x1e
  400e6b:	e9 00 fe ff ff       	jmpq   400c70 <_init+0x20>

0000000000400e70 <socket@plt>:
  400e70:	ff 25 9a 42 20 00    	jmpq   *0x20429a(%rip)        # 605110 <_GLOBAL_OFFSET_TABLE_+0x110>
  400e76:	68 1f 00 00 00       	pushq  $0x1f
  400e7b:	e9 f0 fd ff ff       	jmpq   400c70 <_init+0x20>

Disassembly of section .plt.got:

0000000000400e80 <.plt.got>:
  400e80:	ff 25 72 41 20 00    	jmpq   *0x204172(%rip)        # 604ff8 <_DYNAMIC+0x1e0>
  400e86:	66 90                	xchg   %ax,%ax

Disassembly of section .text:

0000000000400e90 <_start>:
  400e90:	31 ed                	xor    %ebp,%ebp
  400e92:	49 89 d1             	mov    %rdx,%r9
  400e95:	5e                   	pop    %rsi
  400e96:	48 89 e2             	mov    %rsp,%rdx
  400e99:	48 83 e4 f0          	and    $0xfffffffffffffff0,%rsp
  400e9d:	50                   	push   %rax
  400e9e:	54                   	push   %rsp
  400e9f:	49 c7 c0 b0 2c 40 00 	mov    $0x402cb0,%r8
  400ea6:	48 c7 c1 40 2c 40 00 	mov    $0x402c40,%rcx
  400ead:	48 c7 c7 fb 10 40 00 	mov    $0x4010fb,%rdi
  400eb4:	e8 87 fe ff ff       	callq  400d40 <__libc_start_main@plt>
  400eb9:	f4                   	hlt    
  400eba:	66 0f 1f 44 00 00    	nopw   0x0(%rax,%rax,1)

0000000000400ec0 <deregister_tm_clones>:
  400ec0:	b8 97 54 60 00       	mov    $0x605497,%eax
  400ec5:	55                   	push   %rbp
  400ec6:	48 2d 90 54 60 00    	sub    $0x605490,%rax
  400ecc:	48 83 f8 0e          	cmp    $0xe,%rax
  400ed0:	48 89 e5             	mov    %rsp,%rbp
  400ed3:	77 02                	ja     400ed7 <deregister_tm_clones+0x17>
  400ed5:	5d                   	pop    %rbp
  400ed6:	c3                   	retq   
  400ed7:	b8 00 00 00 00       	mov    $0x0,%eax
  400edc:	48 85 c0             	test   %rax,%rax
  400edf:	74 f4                	je     400ed5 <deregister_tm_clones+0x15>
  400ee1:	5d                   	pop    %rbp
  400ee2:	bf 90 54 60 00       	mov    $0x605490,%edi
  400ee7:	ff e0                	jmpq   *%rax
  400ee9:	0f 1f 80 00 00 00 00 	nopl   0x0(%rax)

0000000000400ef0 <register_tm_clones>:
  400ef0:	b8 90 54 60 00       	mov    $0x605490,%eax
  400ef5:	55                   	push   %rbp
  400ef6:	48 2d 90 54 60 00    	sub    $0x605490,%rax
  400efc:	48 c1 f8 03          	sar    $0x3,%rax
  400f00:	48 89 e5             	mov    %rsp,%rbp
  400f03:	48 89 c2             	mov    %rax,%rdx
  400f06:	48 c1 ea 3f          	shr    $0x3f,%rdx
  400f0a:	48 01 d0             	add    %rdx,%rax
  400f0d:	48 d1 f8             	sar    %rax
  400f10:	75 02                	jne    400f14 <register_tm_clones+0x24>
  400f12:	5d                   	pop    %rbp
  400f13:	c3                   	retq   
  400f14:	ba 00 00 00 00       	mov    $0x0,%edx
  400f19:	48 85 d2             	test   %rdx,%rdx
  400f1c:	74 f4                	je     400f12 <register_tm_clones+0x22>
  400f1e:	5d                   	pop    %rbp
  400f1f:	48 89 c6             	mov    %rax,%rsi
  400f22:	bf 90 54 60 00       	mov    $0x605490,%edi
  400f27:	ff e2                	jmpq   *%rdx
  400f29:	0f 1f 80 00 00 00 00 	nopl   0x0(%rax)

0000000000400f30 <__do_global_dtors_aux>:
  400f30:	80 3d 81 45 20 00 00 	cmpb   $0x0,0x204581(%rip)        # 6054b8 <completed.6337>
  400f37:	75 11                	jne    400f4a <__do_global_dtors_aux+0x1a>
  400f39:	55                   	push   %rbp
  400f3a:	48 89 e5             	mov    %rsp,%rbp
  400f3d:	e8 7e ff ff ff       	callq  400ec0 <deregister_tm_clones>
  400f42:	5d                   	pop    %rbp
  400f43:	c6 05 6e 45 20 00 01 	movb   $0x1,0x20456e(%rip)        # 6054b8 <completed.6337>
  400f4a:	f3 c3                	repz retq 
  400f4c:	0f 1f 40 00          	nopl   0x0(%rax)

0000000000400f50 <frame_dummy>:
  400f50:	48 83 3d b8 3e 20 00 	cmpq   $0x0,0x203eb8(%rip)        # 604e10 <__JCR_END__>
  400f57:	00 
  400f58:	74 1e                	je     400f78 <frame_dummy+0x28>
  400f5a:	b8 00 00 00 00       	mov    $0x0,%eax
  400f5f:	48 85 c0             	test   %rax,%rax
  400f62:	74 14                	je     400f78 <frame_dummy+0x28>
  400f64:	55                   	push   %rbp
  400f65:	bf 10 4e 60 00       	mov    $0x604e10,%edi
  400f6a:	48 89 e5             	mov    %rsp,%rbp
  400f6d:	ff d0                	callq  *%rax
  400f6f:	5d                   	pop    %rbp
  400f70:	e9 7b ff ff ff       	jmpq   400ef0 <register_tm_clones>
  400f75:	0f 1f 00             	nopl   (%rax)
  400f78:	e9 73 ff ff ff       	jmpq   400ef0 <register_tm_clones>
  400f7d:	0f 1f 00             	nopl   (%rax)

0000000000400f80 <usage>:
  400f80:	48 83 ec 08          	sub    $0x8,%rsp
  400f84:	48 89 fe             	mov    %rdi,%rsi
  400f87:	83 3d 5a 45 20 00 00 	cmpl   $0x0,0x20455a(%rip)        # 6054e8 <is_checker>
  400f8e:	74 39                	je     400fc9 <usage+0x49>
  400f90:	bf c8 2c 40 00       	mov    $0x402cc8,%edi
  400f95:	b8 00 00 00 00       	mov    $0x0,%eax
  400f9a:	e8 51 fd ff ff       	callq  400cf0 <printf@plt>
  400f9f:	bf 00 2d 40 00       	mov    $0x402d00,%edi
  400fa4:	e8 17 fd ff ff       	callq  400cc0 <puts@plt>
  400fa9:	bf 38 2e 40 00       	mov    $0x402e38,%edi
  400fae:	e8 0d fd ff ff       	callq  400cc0 <puts@plt>
  400fb3:	bf 28 2d 40 00       	mov    $0x402d28,%edi
  400fb8:	e8 03 fd ff ff       	callq  400cc0 <puts@plt>
  400fbd:	bf 52 2e 40 00       	mov    $0x402e52,%edi
  400fc2:	e8 f9 fc ff ff       	callq  400cc0 <puts@plt>
  400fc7:	eb 2d                	jmp    400ff6 <usage+0x76>
  400fc9:	bf 6e 2e 40 00       	mov    $0x402e6e,%edi
  400fce:	b8 00 00 00 00       	mov    $0x0,%eax
  400fd3:	e8 18 fd ff ff       	callq  400cf0 <printf@plt>
  400fd8:	bf 50 2d 40 00       	mov    $0x402d50,%edi
  400fdd:	e8 de fc ff ff       	callq  400cc0 <puts@plt>
  400fe2:	bf 78 2d 40 00       	mov    $0x402d78,%edi
  400fe7:	e8 d4 fc ff ff       	callq  400cc0 <puts@plt>
  400fec:	bf 8c 2e 40 00       	mov    $0x402e8c,%edi
  400ff1:	e8 ca fc ff ff       	callq  400cc0 <puts@plt>
  400ff6:	bf 00 00 00 00       	mov    $0x0,%edi
  400ffb:	e8 50 fe ff ff       	callq  400e50 <exit@plt>

0000000000401000 <initialize_target>:
  401000:	55                   	push   %rbp
  401001:	53                   	push   %rbx
  401002:	48 81 ec 08 21 00 00 	sub    $0x2108,%rsp
  401009:	89 f5                	mov    %esi,%ebp
  40100b:	89 3d c7 44 20 00    	mov    %edi,0x2044c7(%rip)        # 6054d8 <check_level>
  401011:	8b 3d 31 41 20 00    	mov    0x204131(%rip),%edi        # 605148 <target_id>
  401017:	e8 03 1c 00 00       	callq  402c1f <gencookie>
  40101c:	89 05 c2 44 20 00    	mov    %eax,0x2044c2(%rip)        # 6054e4 <cookie>
  401022:	89 c7                	mov    %eax,%edi
  401024:	e8 f6 1b 00 00       	callq  402c1f <gencookie>
  401029:	89 05 b1 44 20 00    	mov    %eax,0x2044b1(%rip)        # 6054e0 <authkey>
  40102f:	8b 05 13 41 20 00    	mov    0x204113(%rip),%eax        # 605148 <target_id>
  401035:	8d 78 01             	lea    0x1(%rax),%edi
  401038:	e8 53 fc ff ff       	callq  400c90 <srandom@plt>
  40103d:	e8 6e fd ff ff       	callq  400db0 <random@plt>
  401042:	89 c7                	mov    %eax,%edi
  401044:	e8 75 02 00 00       	callq  4012be <scramble>
  401049:	89 c3                	mov    %eax,%ebx
  40104b:	85 ed                	test   %ebp,%ebp
  40104d:	74 18                	je     401067 <initialize_target+0x67>
  40104f:	bf 00 00 00 00       	mov    $0x0,%edi
  401054:	e8 47 fd ff ff       	callq  400da0 <time@plt>
  401059:	89 c7                	mov    %eax,%edi
  40105b:	e8 30 fc ff ff       	callq  400c90 <srandom@plt>
  401060:	e8 4b fd ff ff       	callq  400db0 <random@plt>
  401065:	eb 05                	jmp    40106c <initialize_target+0x6c>
  401067:	b8 00 00 00 00       	mov    $0x0,%eax
  40106c:	01 c3                	add    %eax,%ebx
  40106e:	0f b7 db             	movzwl %bx,%ebx
  401071:	8d 04 dd 00 01 00 00 	lea    0x100(,%rbx,8),%eax
  401078:	89 c0                	mov    %eax,%eax
  40107a:	48 89 05 ff 43 20 00 	mov    %rax,0x2043ff(%rip)        # 605480 <buf_offset>
  401081:	c6 05 80 50 20 00 72 	movb   $0x72,0x205080(%rip)        # 606108 <target_prefix>
  401088:	83 3d f9 43 20 00 00 	cmpl   $0x0,0x2043f9(%rip)        # 605488 <notify>
  40108f:	74 60                	je     4010f1 <initialize_target+0xf1>
  401091:	83 3d 50 44 20 00 00 	cmpl   $0x0,0x204450(%rip)        # 6054e8 <is_checker>
  401098:	75 57                	jne    4010f1 <initialize_target+0xf1>
  40109a:	be 00 01 00 00       	mov    $0x100,%esi
  40109f:	48 89 e7             	mov    %rsp,%rdi
  4010a2:	e8 89 fd ff ff       	callq  400e30 <gethostname@plt>
  4010a7:	85 c0                	test   %eax,%eax
  4010a9:	74 14                	je     4010bf <initialize_target+0xbf>
  4010ab:	bf a8 2d 40 00       	mov    $0x402da8,%edi
  4010b0:	e8 0b fc ff ff       	callq  400cc0 <puts@plt>
  4010b5:	bf 08 00 00 00       	mov    $0x8,%edi
  4010ba:	e8 91 fd ff ff       	callq  400e50 <exit@plt>
  4010bf:	48 8d bc 24 00 01 00 	lea    0x100(%rsp),%rdi
  4010c6:	00 
  4010c7:	e8 ea 18 00 00       	callq  4029b6 <init_driver>
  4010cc:	85 c0                	test   %eax,%eax
  4010ce:	79 21                	jns    4010f1 <initialize_target+0xf1>
  4010d0:	48 8d b4 24 00 01 00 	lea    0x100(%rsp),%rsi
  4010d7:	00 
  4010d8:	bf e0 2d 40 00       	mov    $0x402de0,%edi
  4010dd:	b8 00 00 00 00       	mov    $0x0,%eax
  4010e2:	e8 09 fc ff ff       	callq  400cf0 <printf@plt>
  4010e7:	bf 08 00 00 00       	mov    $0x8,%edi
  4010ec:	e8 5f fd ff ff       	callq  400e50 <exit@plt>
  4010f1:	48 81 c4 08 21 00 00 	add    $0x2108,%rsp
  4010f8:	5b                   	pop    %rbx
  4010f9:	5d                   	pop    %rbp
  4010fa:	c3                   	retq   

00000000004010fb <main>:
  4010fb:	41 56                	push   %r14
  4010fd:	41 55                	push   %r13
  4010ff:	41 54                	push   %r12
  401101:	55                   	push   %rbp
  401102:	53                   	push   %rbx
  401103:	41 89 fc             	mov    %edi,%r12d
  401106:	48 89 f3             	mov    %rsi,%rbx
  401109:	be b1 1d 40 00       	mov    $0x401db1,%esi
  40110e:	bf 0b 00 00 00       	mov    $0xb,%edi
  401113:	e8 38 fc ff ff       	callq  400d50 <signal@plt>
  401118:	be 63 1d 40 00       	mov    $0x401d63,%esi
  40111d:	bf 07 00 00 00       	mov    $0x7,%edi
  401122:	e8 29 fc ff ff       	callq  400d50 <signal@plt>
  401127:	be ff 1d 40 00       	mov    $0x401dff,%esi
  40112c:	bf 04 00 00 00       	mov    $0x4,%edi
  401131:	e8 1a fc ff ff       	callq  400d50 <signal@plt>
  401136:	83 3d ab 43 20 00 00 	cmpl   $0x0,0x2043ab(%rip)        # 6054e8 <is_checker>
  40113d:	74 20                	je     40115f <main+0x64>
  40113f:	be 4d 1e 40 00       	mov    $0x401e4d,%esi
  401144:	bf 0e 00 00 00       	mov    $0xe,%edi
  401149:	e8 02 fc ff ff       	callq  400d50 <signal@plt>
  40114e:	bf 05 00 00 00       	mov    $0x5,%edi
  401153:	e8 b8 fb ff ff       	callq  400d10 <alarm@plt>
  401158:	bd aa 2e 40 00       	mov    $0x402eaa,%ebp
  40115d:	eb 05                	jmp    401164 <main+0x69>
  40115f:	bd a5 2e 40 00       	mov    $0x402ea5,%ebp
  401164:	48 8b 05 35 43 20 00 	mov    0x204335(%rip),%rax        # 6054a0 <stdin@@GLIBC_2.2.5>
  40116b:	48 89 05 5e 43 20 00 	mov    %rax,0x20435e(%rip)        # 6054d0 <infile>
  401172:	41 bd 00 00 00 00    	mov    $0x0,%r13d
  401178:	41 be 00 00 00 00    	mov    $0x0,%r14d
  40117e:	e9 b9 00 00 00       	jmpq   40123c <main+0x141>
  401183:	83 e8 61             	sub    $0x61,%eax
  401186:	3c 10                	cmp    $0x10,%al
  401188:	0f 87 93 00 00 00    	ja     401221 <main+0x126>
  40118e:	0f b6 c0             	movzbl %al,%eax
  401191:	ff 24 c5 f0 2e 40 00 	jmpq   *0x402ef0(,%rax,8)
  401198:	48 8b 3b             	mov    (%rbx),%rdi
  40119b:	e8 e0 fd ff ff       	callq  400f80 <usage>
  4011a0:	be 75 31 40 00       	mov    $0x403175,%esi
  4011a5:	48 8b 3d fc 42 20 00 	mov    0x2042fc(%rip),%rdi        # 6054a8 <optarg@@GLIBC_2.2.5>
  4011ac:	e8 4f fc ff ff       	callq  400e00 <fopen@plt>
  4011b1:	48 89 05 18 43 20 00 	mov    %rax,0x204318(%rip)        # 6054d0 <infile>
  4011b8:	48 85 c0             	test   %rax,%rax
  4011bb:	75 7f                	jne    40123c <main+0x141>
  4011bd:	48 8b 15 e4 42 20 00 	mov    0x2042e4(%rip),%rdx        # 6054a8 <optarg@@GLIBC_2.2.5>
  4011c4:	be b2 2e 40 00       	mov    $0x402eb2,%esi
  4011c9:	48 8b 3d e0 42 20 00 	mov    0x2042e0(%rip),%rdi        # 6054b0 <stderr@@GLIBC_2.2.5>
  4011d0:	e8 9b fb ff ff       	callq  400d70 <fprintf@plt>
  4011d5:	b8 01 00 00 00       	mov    $0x1,%eax
  4011da:	e9 d6 00 00 00       	jmpq   4012b5 <main+0x1ba>
  4011df:	ba 10 00 00 00       	mov    $0x10,%edx
  4011e4:	be 00 00 00 00       	mov    $0x0,%esi
  4011e9:	48 8b 3d b8 42 20 00 	mov    0x2042b8(%rip),%rdi        # 6054a8 <optarg@@GLIBC_2.2.5>
  4011f0:	e8 2b fc ff ff       	callq  400e20 <strtoul@plt>
  4011f5:	41 89 c6             	mov    %eax,%r14d
  4011f8:	eb 42                	jmp    40123c <main+0x141>
  4011fa:	ba 0a 00 00 00       	mov    $0xa,%edx
  4011ff:	be 00 00 00 00       	mov    $0x0,%esi
  401204:	48 8b 3d 9d 42 20 00 	mov    0x20429d(%rip),%rdi        # 6054a8 <optarg@@GLIBC_2.2.5>
  40120b:	e8 70 fb ff ff       	callq  400d80 <strtol@plt>
  401210:	41 89 c5             	mov    %eax,%r13d
  401213:	eb 27                	jmp    40123c <main+0x141>
  401215:	c7 05 69 42 20 00 00 	movl   $0x0,0x204269(%rip)        # 605488 <notify>
  40121c:	00 00 00 
  40121f:	eb 1b                	jmp    40123c <main+0x141>
  401221:	40 0f be f6          	movsbl %sil,%esi
  401225:	bf cf 2e 40 00       	mov    $0x402ecf,%edi
  40122a:	b8 00 00 00 00       	mov    $0x0,%eax
  40122f:	e8 bc fa ff ff       	callq  400cf0 <printf@plt>
  401234:	48 8b 3b             	mov    (%rbx),%rdi
  401237:	e8 44 fd ff ff       	callq  400f80 <usage>
  40123c:	48 89 ea             	mov    %rbp,%rdx
  40123f:	48 89 de             	mov    %rbx,%rsi
  401242:	44 89 e7             	mov    %r12d,%edi
  401245:	e8 c6 fb ff ff       	callq  400e10 <getopt@plt>
  40124a:	89 c6                	mov    %eax,%esi
  40124c:	3c ff                	cmp    $0xff,%al
  40124e:	0f 85 2f ff ff ff    	jne    401183 <main+0x88>
  401254:	be 01 00 00 00       	mov    $0x1,%esi
  401259:	44 89 ef             	mov    %r13d,%edi
  40125c:	e8 9f fd ff ff       	callq  401000 <initialize_target>
  401261:	83 3d 80 42 20 00 00 	cmpl   $0x0,0x204280(%rip)        # 6054e8 <is_checker>
  401268:	74 25                	je     40128f <main+0x194>
  40126a:	44 3b 35 6f 42 20 00 	cmp    0x20426f(%rip),%r14d        # 6054e0 <authkey>
  401271:	74 1c                	je     40128f <main+0x194>
  401273:	44 89 f6             	mov    %r14d,%esi
  401276:	bf 08 2e 40 00       	mov    $0x402e08,%edi
  40127b:	b8 00 00 00 00       	mov    $0x0,%eax
  401280:	e8 6b fa ff ff       	callq  400cf0 <printf@plt>
  401285:	b8 00 00 00 00       	mov    $0x0,%eax
  40128a:	e8 dc 07 00 00       	callq  401a6b <check_fail>
  40128f:	8b 35 4f 42 20 00    	mov    0x20424f(%rip),%esi        # 6054e4 <cookie>
  401295:	bf e2 2e 40 00       	mov    $0x402ee2,%edi
  40129a:	b8 00 00 00 00       	mov    $0x0,%eax
  40129f:	e8 4c fa ff ff       	callq  400cf0 <printf@plt>
  4012a4:	48 8b 3d d5 41 20 00 	mov    0x2041d5(%rip),%rdi        # 605480 <buf_offset>
  4012ab:	e8 eb 0b 00 00       	callq  401e9b <launch>
  4012b0:	b8 00 00 00 00       	mov    $0x0,%eax
  4012b5:	5b                   	pop    %rbx
  4012b6:	5d                   	pop    %rbp
  4012b7:	41 5c                	pop    %r12
  4012b9:	41 5d                	pop    %r13
  4012bb:	41 5e                	pop    %r14
  4012bd:	c3                   	retq   

00000000004012be <scramble>:
  4012be:	b8 00 00 00 00       	mov    $0x0,%eax
  4012c3:	eb 11                	jmp    4012d6 <scramble+0x18>
  4012c5:	69 c8 8e 49 00 00    	imul   $0x498e,%eax,%ecx
  4012cb:	01 f9                	add    %edi,%ecx
  4012cd:	89 c2                	mov    %eax,%edx
  4012cf:	89 4c 94 d0          	mov    %ecx,-0x30(%rsp,%rdx,4)
  4012d3:	83 c0 01             	add    $0x1,%eax
  4012d6:	83 f8 09             	cmp    $0x9,%eax
  4012d9:	76 ea                	jbe    4012c5 <scramble+0x7>
  4012db:	8b 44 24 d4          	mov    -0x2c(%rsp),%eax
  4012df:	69 c0 d8 04 00 00    	imul   $0x4d8,%eax,%eax
  4012e5:	89 44 24 d4          	mov    %eax,-0x2c(%rsp)
  4012e9:	8b 44 24 dc          	mov    -0x24(%rsp),%eax
  4012ed:	69 c0 a3 32 00 00    	imul   $0x32a3,%eax,%eax
  4012f3:	89 44 24 dc          	mov    %eax,-0x24(%rsp)
  4012f7:	8b 44 24 f4          	mov    -0xc(%rsp),%eax
  4012fb:	69 c0 26 4d 00 00    	imul   $0x4d26,%eax,%eax
  401301:	89 44 24 f4          	mov    %eax,-0xc(%rsp)
  401305:	8b 44 24 f0          	mov    -0x10(%rsp),%eax
  401309:	69 c0 cf c5 00 00    	imul   $0xc5cf,%eax,%eax
  40130f:	89 44 24 f0          	mov    %eax,-0x10(%rsp)
  401313:	8b 44 24 d8          	mov    -0x28(%rsp),%eax
  401317:	69 c0 d8 d6 00 00    	imul   $0xd6d8,%eax,%eax
  40131d:	89 44 24 d8          	mov    %eax,-0x28(%rsp)
  401321:	8b 44 24 d0          	mov    -0x30(%rsp),%eax
  401325:	69 c0 ac 98 00 00    	imul   $0x98ac,%eax,%eax
  40132b:	89 44 24 d0          	mov    %eax,-0x30(%rsp)
  40132f:	8b 44 24 e0          	mov    -0x20(%rsp),%eax
  401333:	69 c0 4d b3 00 00    	imul   $0xb34d,%eax,%eax
  401339:	89 44 24 e0          	mov    %eax,-0x20(%rsp)
  40133d:	8b 44 24 f0          	mov    -0x10(%rsp),%eax
  401341:	69 c0 81 ac 00 00    	imul   $0xac81,%eax,%eax
  401347:	89 44 24 f0          	mov    %eax,-0x10(%rsp)
  40134b:	8b 44 24 e0          	mov    -0x20(%rsp),%eax
  40134f:	69 c0 6f 92 00 00    	imul   $0x926f,%eax,%eax
  401355:	89 44 24 e0          	mov    %eax,-0x20(%rsp)
  401359:	8b 44 24 e4          	mov    -0x1c(%rsp),%eax
  40135d:	69 c0 ff 96 00 00    	imul   $0x96ff,%eax,%eax
  401363:	89 44 24 e4          	mov    %eax,-0x1c(%rsp)
  401367:	8b 44 24 f4          	mov    -0xc(%rsp),%eax
  40136b:	69 c0 e2 28 00 00    	imul   $0x28e2,%eax,%eax
  401371:	89 44 24 f4          	mov    %eax,-0xc(%rsp)
  401375:	8b 44 24 dc          	mov    -0x24(%rsp),%eax
  401379:	69 c0 e8 35 00 00    	imul   $0x35e8,%eax,%eax
  40137f:	89 44 24 dc          	mov    %eax,-0x24(%rsp)
  401383:	8b 44 24 d8          	mov    -0x28(%rsp),%eax
  401387:	69 c0 8c 76 00 00    	imul   $0x768c,%eax,%eax
  40138d:	89 44 24 d8          	mov    %eax,-0x28(%rsp)
  401391:	8b 44 24 ec          	mov    -0x14(%rsp),%eax
  401395:	69 c0 96 b4 00 00    	imul   $0xb496,%eax,%eax
  40139b:	89 44 24 ec          	mov    %eax,-0x14(%rsp)
  40139f:	8b 44 24 d4          	mov    -0x2c(%rsp),%eax
  4013a3:	69 c0 b7 8e 00 00    	imul   $0x8eb7,%eax,%eax
  4013a9:	89 44 24 d4          	mov    %eax,-0x2c(%rsp)
  4013ad:	8b 44 24 f4          	mov    -0xc(%rsp),%eax
  4013b1:	69 c0 e5 ff 00 00    	imul   $0xffe5,%eax,%eax
  4013b7:	89 44 24 f4          	mov    %eax,-0xc(%rsp)
  4013bb:	8b 44 24 d0          	mov    -0x30(%rsp),%eax
  4013bf:	69 c0 74 c2 00 00    	imul   $0xc274,%eax,%eax
  4013c5:	89 44 24 d0          	mov    %eax,-0x30(%rsp)
  4013c9:	8b 44 24 ec          	mov    -0x14(%rsp),%eax
  4013cd:	69 c0 04 7e 00 00    	imul   $0x7e04,%eax,%eax
  4013d3:	89 44 24 ec          	mov    %eax,-0x14(%rsp)
  4013d7:	8b 44 24 f0          	mov    -0x10(%rsp),%eax
  4013db:	69 c0 4b ed 00 00    	imul   $0xed4b,%eax,%eax
  4013e1:	89 44 24 f0          	mov    %eax,-0x10(%rsp)
  4013e5:	8b 44 24 e8          	mov    -0x18(%rsp),%eax
  4013e9:	69 c0 15 bf 00 00    	imul   $0xbf15,%eax,%eax
  4013ef:	89 44 24 e8          	mov    %eax,-0x18(%rsp)
  4013f3:	8b 44 24 d0          	mov    -0x30(%rsp),%eax
  4013f7:	69 c0 c2 83 00 00    	imul   $0x83c2,%eax,%eax
  4013fd:	89 44 24 d0          	mov    %eax,-0x30(%rsp)
  401401:	8b 44 24 d4          	mov    -0x2c(%rsp),%eax
  401405:	89 c2                	mov    %eax,%edx
  401407:	c1 e2 06             	shl    $0x6,%edx
  40140a:	8d 04 42             	lea    (%rdx,%rax,2),%eax
  40140d:	89 44 24 d4          	mov    %eax,-0x2c(%rsp)
  401411:	8b 44 24 e4          	mov    -0x1c(%rsp),%eax
  401415:	69 c0 6e d8 00 00    	imul   $0xd86e,%eax,%eax
  40141b:	89 44 24 e4          	mov    %eax,-0x1c(%rsp)
  40141f:	8b 44 24 f0          	mov    -0x10(%rsp),%eax
  401423:	69 c0 7d df 00 00    	imul   $0xdf7d,%eax,%eax
  401429:	89 44 24 f0          	mov    %eax,-0x10(%rsp)
  40142d:	8b 44 24 e4          	mov    -0x1c(%rsp),%eax
  401431:	69 c0 fd 3d 00 00    	imul   $0x3dfd,%eax,%eax
  401437:	89 44 24 e4          	mov    %eax,-0x1c(%rsp)
  40143b:	8b 44 24 dc          	mov    -0x24(%rsp),%eax
  40143f:	69 c0 af 1c 00 00    	imul   $0x1caf,%eax,%eax
  401445:	89 44 24 dc          	mov    %eax,-0x24(%rsp)
  401449:	8b 44 24 f4          	mov    -0xc(%rsp),%eax
  40144d:	69 c0 ce fc 00 00    	imul   $0xfcce,%eax,%eax
  401453:	89 44 24 f4          	mov    %eax,-0xc(%rsp)
  401457:	8b 44 24 d0          	mov    -0x30(%rsp),%eax
  40145b:	69 c0 fc 86 00 00    	imul   $0x86fc,%eax,%eax
  401461:	89 44 24 d0          	mov    %eax,-0x30(%rsp)
  401465:	8b 44 24 d0          	mov    -0x30(%rsp),%eax
  401469:	69 c0 e7 95 00 00    	imul   $0x95e7,%eax,%eax
  40146f:	89 44 24 d0          	mov    %eax,-0x30(%rsp)
  401473:	8b 44 24 d0          	mov    -0x30(%rsp),%eax
  401477:	69 c0 b1 29 00 00    	imul   $0x29b1,%eax,%eax
  40147d:	89 44 24 d0          	mov    %eax,-0x30(%rsp)
  401481:	8b 44 24 e8          	mov    -0x18(%rsp),%eax
  401485:	69 c0 de 61 00 00    	imul   $0x61de,%eax,%eax
  40148b:	89 44 24 e8          	mov    %eax,-0x18(%rsp)
  40148f:	8b 44 24 e0          	mov    -0x20(%rsp),%eax
  401493:	69 c0 2e b8 00 00    	imul   $0xb82e,%eax,%eax
  401499:	89 44 24 e0          	mov    %eax,-0x20(%rsp)
  40149d:	8b 44 24 e0          	mov    -0x20(%rsp),%eax
  4014a1:	69 c0 1f 5c 00 00    	imul   $0x5c1f,%eax,%eax
  4014a7:	89 44 24 e0          	mov    %eax,-0x20(%rsp)
  4014ab:	8b 44 24 f0          	mov    -0x10(%rsp),%eax
  4014af:	69 c0 ed 33 00 00    	imul   $0x33ed,%eax,%eax
  4014b5:	89 44 24 f0          	mov    %eax,-0x10(%rsp)
  4014b9:	8b 44 24 f4          	mov    -0xc(%rsp),%eax
  4014bd:	69 c0 06 7a 00 00    	imul   $0x7a06,%eax,%eax
  4014c3:	89 44 24 f4          	mov    %eax,-0xc(%rsp)
  4014c7:	8b 44 24 e0          	mov    -0x20(%rsp),%eax
  4014cb:	69 c0 8e 0d 00 00    	imul   $0xd8e,%eax,%eax
  4014d1:	89 44 24 e0          	mov    %eax,-0x20(%rsp)
  4014d5:	8b 44 24 e0          	mov    -0x20(%rsp),%eax
  4014d9:	69 c0 c5 4a 00 00    	imul   $0x4ac5,%eax,%eax
  4014df:	89 44 24 e0          	mov    %eax,-0x20(%rsp)
  4014e3:	8b 44 24 ec          	mov    -0x14(%rsp),%eax
  4014e7:	69 c0 d7 34 00 00    	imul   $0x34d7,%eax,%eax
  4014ed:	89 44 24 ec          	mov    %eax,-0x14(%rsp)
  4014f1:	8b 44 24 ec          	mov    -0x14(%rsp),%eax
  4014f5:	69 c0 93 ba 00 00    	imul   $0xba93,%eax,%eax
  4014fb:	89 44 24 ec          	mov    %eax,-0x14(%rsp)
  4014ff:	8b 44 24 d8          	mov    -0x28(%rsp),%eax
  401503:	69 c0 11 8e 00 00    	imul   $0x8e11,%eax,%eax
  401509:	89 44 24 d8          	mov    %eax,-0x28(%rsp)
  40150d:	8b 44 24 dc          	mov    -0x24(%rsp),%eax
  401511:	69 c0 d2 8a 00 00    	imul   $0x8ad2,%eax,%eax
  401517:	89 44 24 dc          	mov    %eax,-0x24(%rsp)
  40151b:	8b 44 24 d0          	mov    -0x30(%rsp),%eax
  40151f:	69 c0 70 5f 00 00    	imul   $0x5f70,%eax,%eax
  401525:	89 44 24 d0          	mov    %eax,-0x30(%rsp)
  401529:	8b 44 24 e8          	mov    -0x18(%rsp),%eax
  40152d:	69 c0 58 fd 00 00    	imul   $0xfd58,%eax,%eax
  401533:	89 44 24 e8          	mov    %eax,-0x18(%rsp)
  401537:	8b 44 24 d0          	mov    -0x30(%rsp),%eax
  40153b:	69 c0 fa fa 00 00    	imul   $0xfafa,%eax,%eax
  401541:	89 44 24 d0          	mov    %eax,-0x30(%rsp)
  401545:	8b 44 24 d4          	mov    -0x2c(%rsp),%eax
  401549:	69 c0 ff 21 00 00    	imul   $0x21ff,%eax,%eax
  40154f:	89 44 24 d4          	mov    %eax,-0x2c(%rsp)
  401553:	8b 44 24 f4          	mov    -0xc(%rsp),%eax
  401557:	69 c0 de b7 00 00    	imul   $0xb7de,%eax,%eax
  40155d:	89 44 24 f4          	mov    %eax,-0xc(%rsp)
  401561:	8b 44 24 d8          	mov    -0x28(%rsp),%eax
  401565:	69 c0 41 4e 00 00    	imul   $0x4e41,%eax,%eax
  40156b:	89 44 24 d8          	mov    %eax,-0x28(%rsp)
  40156f:	8b 44 24 e0          	mov    -0x20(%rsp),%eax
  401573:	69 c0 2f a8 00 00    	imul   $0xa82f,%eax,%eax
  401579:	89 44 24 e0          	mov    %eax,-0x20(%rsp)
  40157d:	8b 44 24 f4          	mov    -0xc(%rsp),%eax
  401581:	69 c0 3f a6 00 00    	imul   $0xa63f,%eax,%eax
  401587:	89 44 24 f4          	mov    %eax,-0xc(%rsp)
  40158b:	8b 44 24 e4          	mov    -0x1c(%rsp),%eax
  40158f:	69 c0 cb f3 00 00    	imul   $0xf3cb,%eax,%eax
  401595:	89 44 24 e4          	mov    %eax,-0x1c(%rsp)
  401599:	8b 44 24 dc          	mov    -0x24(%rsp),%eax
  40159d:	69 c0 20 cf 00 00    	imul   $0xcf20,%eax,%eax
  4015a3:	89 44 24 dc          	mov    %eax,-0x24(%rsp)
  4015a7:	8b 44 24 dc          	mov    -0x24(%rsp),%eax
  4015ab:	69 c0 0e 1e 00 00    	imul   $0x1e0e,%eax,%eax
  4015b1:	89 44 24 dc          	mov    %eax,-0x24(%rsp)
  4015b5:	8b 44 24 ec          	mov    -0x14(%rsp),%eax
  4015b9:	69 c0 2a 0f 00 00    	imul   $0xf2a,%eax,%eax
  4015bf:	89 44 24 ec          	mov    %eax,-0x14(%rsp)
  4015c3:	8b 44 24 d4          	mov    -0x2c(%rsp),%eax
  4015c7:	69 c0 18 3d 00 00    	imul   $0x3d18,%eax,%eax
  4015cd:	89 44 24 d4          	mov    %eax,-0x2c(%rsp)
  4015d1:	8b 44 24 d0          	mov    -0x30(%rsp),%eax
  4015d5:	69 c0 3a 67 00 00    	imul   $0x673a,%eax,%eax
  4015db:	89 44 24 d0          	mov    %eax,-0x30(%rsp)
  4015df:	8b 44 24 d0          	mov    -0x30(%rsp),%eax
  4015e3:	69 c0 4e c2 00 00    	imul   $0xc24e,%eax,%eax
  4015e9:	89 44 24 d0          	mov    %eax,-0x30(%rsp)
  4015ed:	8b 44 24 d8          	mov    -0x28(%rsp),%eax
  4015f1:	69 c0 eb 75 00 00    	imul   $0x75eb,%eax,%eax
  4015f7:	89 44 24 d8          	mov    %eax,-0x28(%rsp)
  4015fb:	8b 44 24 f4          	mov    -0xc(%rsp),%eax
  4015ff:	69 c0 ac 79 00 00    	imul   $0x79ac,%eax,%eax
  401605:	89 44 24 f4          	mov    %eax,-0xc(%rsp)
  401609:	8b 44 24 e8          	mov    -0x18(%rsp),%eax
  40160d:	69 c0 2a 08 00 00    	imul   $0x82a,%eax,%eax
  401613:	89 44 24 e8          	mov    %eax,-0x18(%rsp)
  401617:	8b 44 24 ec          	mov    -0x14(%rsp),%eax
  40161b:	69 c0 83 06 00 00    	imul   $0x683,%eax,%eax
  401621:	89 44 24 ec          	mov    %eax,-0x14(%rsp)
  401625:	8b 44 24 d8          	mov    -0x28(%rsp),%eax
  401629:	69 c0 51 99 00 00    	imul   $0x9951,%eax,%eax
  40162f:	89 44 24 d8          	mov    %eax,-0x28(%rsp)
  401633:	8b 44 24 e4          	mov    -0x1c(%rsp),%eax
  401637:	69 c0 06 ae 00 00    	imul   $0xae06,%eax,%eax
  40163d:	89 44 24 e4          	mov    %eax,-0x1c(%rsp)
  401641:	8b 44 24 e0          	mov    -0x20(%rsp),%eax
  401645:	69 c0 6e 2e 00 00    	imul   $0x2e6e,%eax,%eax
  40164b:	89 44 24 e0          	mov    %eax,-0x20(%rsp)
  40164f:	8b 44 24 ec          	mov    -0x14(%rsp),%eax
  401653:	69 c0 f3 91 00 00    	imul   $0x91f3,%eax,%eax
  401659:	89 44 24 ec          	mov    %eax,-0x14(%rsp)
  40165d:	8b 44 24 f0          	mov    -0x10(%rsp),%eax
  401661:	69 c0 53 32 00 00    	imul   $0x3253,%eax,%eax
  401667:	89 44 24 f0          	mov    %eax,-0x10(%rsp)
  40166b:	8b 44 24 e4          	mov    -0x1c(%rsp),%eax
  40166f:	69 c0 f3 f4 00 00    	imul   $0xf4f3,%eax,%eax
  401675:	89 44 24 e4          	mov    %eax,-0x1c(%rsp)
  401679:	8b 44 24 e4          	mov    -0x1c(%rsp),%eax
  40167d:	69 c0 18 87 00 00    	imul   $0x8718,%eax,%eax
  401683:	89 44 24 e4          	mov    %eax,-0x1c(%rsp)
  401687:	8b 44 24 d8          	mov    -0x28(%rsp),%eax
  40168b:	69 c0 58 1b 00 00    	imul   $0x1b58,%eax,%eax
  401691:	89 44 24 d8          	mov    %eax,-0x28(%rsp)
  401695:	8b 44 24 d0          	mov    -0x30(%rsp),%eax
  401699:	69 c0 e6 65 00 00    	imul   $0x65e6,%eax,%eax
  40169f:	89 44 24 d0          	mov    %eax,-0x30(%rsp)
  4016a3:	8b 44 24 d4          	mov    -0x2c(%rsp),%eax
  4016a7:	69 c0 ff 5f 00 00    	imul   $0x5fff,%eax,%eax
  4016ad:	89 44 24 d4          	mov    %eax,-0x2c(%rsp)
  4016b1:	8b 44 24 f4          	mov    -0xc(%rsp),%eax
  4016b5:	69 c0 9a 23 00 00    	imul   $0x239a,%eax,%eax
  4016bb:	89 44 24 f4          	mov    %eax,-0xc(%rsp)
  4016bf:	8b 44 24 e4          	mov    -0x1c(%rsp),%eax
  4016c3:	69 c0 2d bf 00 00    	imul   $0xbf2d,%eax,%eax
  4016c9:	89 44 24 e4          	mov    %eax,-0x1c(%rsp)
  4016cd:	8b 44 24 e8          	mov    -0x18(%rsp),%eax
  4016d1:	69 c0 0b 44 00 00    	imul   $0x440b,%eax,%eax
  4016d7:	89 44 24 e8          	mov    %eax,-0x18(%rsp)
  4016db:	8b 44 24 e0          	mov    -0x20(%rsp),%eax
  4016df:	69 c0 c9 0c 00 00    	imul   $0xcc9,%eax,%eax
  4016e5:	89 44 24 e0          	mov    %eax,-0x20(%rsp)
  4016e9:	8b 44 24 e8          	mov    -0x18(%rsp),%eax
  4016ed:	69 c0 80 ad 00 00    	imul   $0xad80,%eax,%eax
  4016f3:	89 44 24 e8          	mov    %eax,-0x18(%rsp)
  4016f7:	8b 44 24 d8          	mov    -0x28(%rsp),%eax
  4016fb:	69 c0 5f 76 00 00    	imul   $0x765f,%eax,%eax
  401701:	89 44 24 d8          	mov    %eax,-0x28(%rsp)
  401705:	8b 44 24 d0          	mov    -0x30(%rsp),%eax
  401709:	69 c0 ae d1 00 00    	imul   $0xd1ae,%eax,%eax
  40170f:	89 44 24 d0          	mov    %eax,-0x30(%rsp)
  401713:	8b 44 24 ec          	mov    -0x14(%rsp),%eax
  401717:	69 c0 65 2e 00 00    	imul   $0x2e65,%eax,%eax
  40171d:	89 44 24 ec          	mov    %eax,-0x14(%rsp)
  401721:	ba 00 00 00 00       	mov    $0x0,%edx
  401726:	b8 00 00 00 00       	mov    $0x0,%eax
  40172b:	eb 0b                	jmp    401738 <scramble+0x47a>
  40172d:	89 d1                	mov    %edx,%ecx
  40172f:	8b 4c 8c d0          	mov    -0x30(%rsp,%rcx,4),%ecx
  401733:	01 c8                	add    %ecx,%eax
  401735:	83 c2 01             	add    $0x1,%edx
  401738:	83 fa 09             	cmp    $0x9,%edx
  40173b:	76 f0                	jbe    40172d <scramble+0x46f>
  40173d:	f3 c3                	repz retq 

000000000040173f <getbuf>:
  40173f:	48 83 ec 28          	sub    $0x28,%rsp
  401743:	48 89 e7             	mov    %rsp,%rdi
  401746:	e8 4f 03 00 00       	callq  401a9a <Gets>
  40174b:	b8 01 00 00 00       	mov    $0x1,%eax
  401750:	48 83 c4 28          	add    $0x28,%rsp
  401754:	c3                   	retq   

0000000000401755 <touch1>:
  401755:	48 83 ec 08          	sub    $0x8,%rsp
  401759:	c7 05 79 3d 20 00 01 	movl   $0x1,0x203d79(%rip)        # 6054dc <vlevel>
  401760:	00 00 00 
  401763:	bf c7 2f 40 00       	mov    $0x402fc7,%edi
  401768:	e8 53 f5 ff ff       	callq  400cc0 <puts@plt>
  40176d:	bf 01 00 00 00       	mov    $0x1,%edi
  401772:	e8 12 05 00 00       	callq  401c89 <validate>
  401777:	bf 00 00 00 00       	mov    $0x0,%edi
  40177c:	e8 cf f6 ff ff       	callq  400e50 <exit@plt>

0000000000401781 <touch2>:
  401781:	48 83 ec 08          	sub    $0x8,%rsp
  401785:	89 fe                	mov    %edi,%esi
  401787:	c7 05 4b 3d 20 00 02 	movl   $0x2,0x203d4b(%rip)        # 6054dc <vlevel>
  40178e:	00 00 00 
  401791:	3b 3d 4d 3d 20 00    	cmp    0x203d4d(%rip),%edi        # 6054e4 <cookie>
  401797:	75 1b                	jne    4017b4 <touch2+0x33>
  401799:	bf f0 2f 40 00       	mov    $0x402ff0,%edi
  40179e:	b8 00 00 00 00       	mov    $0x0,%eax
  4017a3:	e8 48 f5 ff ff       	callq  400cf0 <printf@plt>
  4017a8:	bf 02 00 00 00       	mov    $0x2,%edi
  4017ad:	e8 d7 04 00 00       	callq  401c89 <validate>
  4017b2:	eb 19                	jmp    4017cd <touch2+0x4c>
  4017b4:	bf 18 30 40 00       	mov    $0x403018,%edi
  4017b9:	b8 00 00 00 00       	mov    $0x0,%eax
  4017be:	e8 2d f5 ff ff       	callq  400cf0 <printf@plt>
  4017c3:	bf 02 00 00 00       	mov    $0x2,%edi
  4017c8:	e8 6e 05 00 00       	callq  401d3b <fail>
  4017cd:	bf 00 00 00 00       	mov    $0x0,%edi
  4017d2:	e8 79 f6 ff ff       	callq  400e50 <exit@plt>

00000000004017d7 <hexmatch>:
  4017d7:	41 54                	push   %r12
  4017d9:	55                   	push   %rbp
  4017da:	53                   	push   %rbx
  4017db:	48 83 ec 70          	sub    $0x70,%rsp
  4017df:	41 89 fc             	mov    %edi,%r12d
  4017e2:	48 89 f5             	mov    %rsi,%rbp
  4017e5:	e8 c6 f5 ff ff       	callq  400db0 <random@plt>
  4017ea:	48 89 c1             	mov    %rax,%rcx
  4017ed:	48 ba 0b d7 a3 70 3d 	movabs $0xa3d70a3d70a3d70b,%rdx
  4017f4:	0a d7 a3 
  4017f7:	48 f7 ea             	imul   %rdx
  4017fa:	48 8d 04 0a          	lea    (%rdx,%rcx,1),%rax
  4017fe:	48 c1 f8 06          	sar    $0x6,%rax
  401802:	48 89 ce             	mov    %rcx,%rsi
  401805:	48 c1 fe 3f          	sar    $0x3f,%rsi
  401809:	48 29 f0             	sub    %rsi,%rax
  40180c:	48 8d 04 80          	lea    (%rax,%rax,4),%rax
  401810:	48 8d 04 80          	lea    (%rax,%rax,4),%rax
  401814:	48 c1 e0 02          	shl    $0x2,%rax
  401818:	48 29 c1             	sub    %rax,%rcx
  40181b:	48 8d 1c 0c          	lea    (%rsp,%rcx,1),%rbx
  40181f:	44 89 e2             	mov    %r12d,%edx
  401822:	be e4 2f 40 00       	mov    $0x402fe4,%esi
  401827:	48 89 df             	mov    %rbx,%rdi
  40182a:	b8 00 00 00 00       	mov    $0x0,%eax
  40182f:	e8 0c f6 ff ff       	callq  400e40 <sprintf@plt>
  401834:	ba 09 00 00 00       	mov    $0x9,%edx
  401839:	48 89 de             	mov    %rbx,%rsi
  40183c:	48 89 ef             	mov    %rbp,%rdi
  40183f:	e8 5c f4 ff ff       	callq  400ca0 <strncmp@plt>
  401844:	85 c0                	test   %eax,%eax
  401846:	0f 94 c0             	sete   %al
  401849:	0f b6 c0             	movzbl %al,%eax
  40184c:	48 83 c4 70          	add    $0x70,%rsp
  401850:	5b                   	pop    %rbx
  401851:	5d                   	pop    %rbp
  401852:	41 5c                	pop    %r12
  401854:	c3                   	retq   

0000000000401855 <touch3>:
  401855:	53                   	push   %rbx
  401856:	48 89 fb             	mov    %rdi,%rbx
  401859:	c7 05 79 3c 20 00 03 	movl   $0x3,0x203c79(%rip)        # 6054dc <vlevel>
  401860:	00 00 00 
  401863:	48 89 fe             	mov    %rdi,%rsi
  401866:	8b 3d 78 3c 20 00    	mov    0x203c78(%rip),%edi        # 6054e4 <cookie>
  40186c:	e8 66 ff ff ff       	callq  4017d7 <hexmatch>
  401871:	85 c0                	test   %eax,%eax
  401873:	74 1e                	je     401893 <touch3+0x3e>
  401875:	48 89 de             	mov    %rbx,%rsi
  401878:	bf 40 30 40 00       	mov    $0x403040,%edi
  40187d:	b8 00 00 00 00       	mov    $0x0,%eax
  401882:	e8 69 f4 ff ff       	callq  400cf0 <printf@plt>
  401887:	bf 03 00 00 00       	mov    $0x3,%edi
  40188c:	e8 f8 03 00 00       	callq  401c89 <validate>
  401891:	eb 1c                	jmp    4018af <touch3+0x5a>
  401893:	48 89 de             	mov    %rbx,%rsi
  401896:	bf 68 30 40 00       	mov    $0x403068,%edi
  40189b:	b8 00 00 00 00       	mov    $0x0,%eax
  4018a0:	e8 4b f4 ff ff       	callq  400cf0 <printf@plt>
  4018a5:	bf 03 00 00 00       	mov    $0x3,%edi
  4018aa:	e8 8c 04 00 00       	callq  401d3b <fail>
  4018af:	bf 00 00 00 00       	mov    $0x0,%edi
  4018b4:	e8 97 f5 ff ff       	callq  400e50 <exit@plt>

00000000004018b9 <test>:
  4018b9:	48 83 ec 08          	sub    $0x8,%rsp
  4018bd:	b8 00 00 00 00       	mov    $0x0,%eax
  4018c2:	e8 78 fe ff ff       	callq  40173f <getbuf>
  4018c7:	89 c6                	mov    %eax,%esi
  4018c9:	bf 90 30 40 00       	mov    $0x403090,%edi
  4018ce:	b8 00 00 00 00       	mov    $0x0,%eax
  4018d3:	e8 18 f4 ff ff       	callq  400cf0 <printf@plt>
  4018d8:	48 83 c4 08          	add    $0x8,%rsp
  4018dc:	c3                   	retq   

00000000004018dd <start_farm>:
  4018dd:	b8 01 00 00 00       	mov    $0x1,%eax
  4018e2:	c3                   	retq   

00000000004018e3 <addval_353>:
  4018e3:	8d 87 48 89 c7 c3    	lea    -0x3c3876b8(%rdi),%eax
  4018e9:	c3                   	retq   

00000000004018ea <getval_426>:
  4018ea:	b8 78 90 90 c3       	mov    $0xc3909078,%eax
  4018ef:	c3                   	retq   

00000000004018f0 <addval_373>:
  4018f0:	8d 87 40 89 c7 c3    	lea    -0x3c3876c0(%rdi),%eax
  4018f6:	c3                   	retq   

00000000004018f7 <getval_332>:
  4018f7:	b8 09 48 89 c7       	mov    $0xc7894809,%eax
  4018fc:	c3                   	retq   

00000000004018fd <addval_188>:
  4018fd:	8d 87 4c 89 c7 c3    	lea    -0x3c3876b4(%rdi),%eax
  401903:	c3                   	retq   

0000000000401904 <addval_484>:
  401904:	8d 87 b0 58 90 c3    	lea    -0x3c6fa750(%rdi),%eax
  40190a:	c3                   	retq   

000000000040190b <getval_316>:
  40190b:	b8 69 78 90 c3       	mov    $0xc3907869,%eax
  401910:	c3                   	retq   

0000000000401911 <setval_299>:
  401911:	c7 07 58 90 90 90    	movl   $0x90909058,(%rdi)
  401917:	c3                   	retq   

0000000000401918 <mid_farm>:
  401918:	b8 01 00 00 00       	mov    $0x1,%eax
  40191d:	c3                   	retq   

000000000040191e <add_xy>:
  40191e:	48 8d 04 37          	lea    (%rdi,%rsi,1),%rax
  401922:	c3                   	retq   

0000000000401923 <addval_409>:
  401923:	8d 87 3d 48 8b e0    	lea    -0x1f74b7c3(%rdi),%eax
  401929:	c3                   	retq   

000000000040192a <addval_344>:
  40192a:	8d 87 47 89 d1 90    	lea    -0x6f2e76b9(%rdi),%eax
  401930:	c3                   	retq   

0000000000401931 <setval_273>:
  401931:	c7 07 89 ce 78 c0    	movl   $0xc078ce89,(%rdi)
  401937:	c3                   	retq   

0000000000401938 <getval_247>:
  401938:	b8 88 c2 38 db       	mov    $0xdb38c288,%eax
  40193d:	c3                   	retq   

000000000040193e <setval_464>:
  40193e:	c7 07 48 88 e0 90    	movl   $0x90e08848,(%rdi)
  401944:	c3                   	retq   

0000000000401945 <getval_496>:
  401945:	b8 48 99 e0 c3       	mov    $0xc3e09948,%eax
  40194a:	c3                   	retq   

000000000040194b <setval_388>:
  40194b:	c7 07 58 89 e0 c3    	movl   $0xc3e08958,(%rdi)
  401951:	c3                   	retq   

0000000000401952 <addval_424>:
  401952:	8d 87 89 ce a4 d2    	lea    -0x2d5b3177(%rdi),%eax
  401958:	c3                   	retq   

0000000000401959 <getval_488>:
  401959:	b8 89 c2 94 c0       	mov    $0xc094c289,%eax
  40195e:	c3                   	retq   

000000000040195f <getval_265>:
  40195f:	b8 31 09 d1 90       	mov    $0x90d10931,%eax
  401964:	c3                   	retq   

0000000000401965 <setval_365>:
  401965:	c7 07 99 d1 38 c9    	movl   $0xc938d199,(%rdi)
  40196b:	c3                   	retq   

000000000040196c <getval_320>:
  40196c:	b8 cc 89 c2 92       	mov    $0x92c289cc,%eax
  401971:	c3                   	retq   

0000000000401972 <getval_355>:
  401972:	b8 48 89 e0 92       	mov    $0x92e08948,%eax
  401977:	c3                   	retq   

0000000000401978 <setval_380>:
  401978:	c7 07 4c a6 8d ce    	movl   $0xce8da64c,(%rdi)
  40197e:	c3                   	retq   

000000000040197f <getval_118>:
  40197f:	b8 89 ce c4 db       	mov    $0xdbc4ce89,%eax
  401984:	c3                   	retq   

0000000000401985 <getval_351>:
  401985:	b8 89 c2 20 c0       	mov    $0xc020c289,%eax
  40198a:	c3                   	retq   

000000000040198b <getval_106>:
  40198b:	b8 89 c2 90 c7       	mov    $0xc790c289,%eax
  401990:	c3                   	retq   

0000000000401991 <getval_412>:
  401991:	b8 89 ce c4 c9       	mov    $0xc9c4ce89,%eax
  401996:	c3                   	retq   

0000000000401997 <addval_473>:
  401997:	8d 87 81 d1 08 c9    	lea    -0x36f72e7f(%rdi),%eax
  40199d:	c3                   	retq   

000000000040199e <setval_217>:
  40199e:	c7 07 89 ce 84 c0    	movl   $0xc084ce89,(%rdi)
  4019a4:	c3                   	retq   

00000000004019a5 <setval_437>:
  4019a5:	c7 07 48 89 e0 c3    	movl   $0xc3e08948,(%rdi)
  4019ab:	c3                   	retq   

00000000004019ac <addval_137>:
  4019ac:	8d 87 89 ce 20 db    	lea    -0x24df3177(%rdi),%eax
  4019b2:	c3                   	retq   

00000000004019b3 <getval_446>:
  4019b3:	b8 d0 8d c2 c3       	mov    $0xc3c28dd0,%eax
  4019b8:	c3                   	retq   

00000000004019b9 <addval_211>:
  4019b9:	8d 87 89 d1 30 c0    	lea    -0x3fcf2e77(%rdi),%eax
  4019bf:	c3                   	retq   

00000000004019c0 <setval_311>:
  4019c0:	c7 07 4a 48 89 e0    	movl   $0xe089484a,(%rdi)
  4019c6:	c3                   	retq   

00000000004019c7 <setval_124>:
  4019c7:	c7 07 89 d1 20 db    	movl   $0xdb20d189,(%rdi)
  4019cd:	c3                   	retq   

00000000004019ce <setval_396>:
  4019ce:	c7 07 88 d1 90 c3    	movl   $0xc390d188,(%rdi)
  4019d4:	c3                   	retq   

00000000004019d5 <getval_139>:
  4019d5:	b8 89 d1 28 db       	mov    $0xdb28d189,%eax
  4019da:	c3                   	retq   

00000000004019db <getval_110>:
  4019db:	b8 09 c2 08 c9       	mov    $0xc908c209,%eax
  4019e0:	c3                   	retq   

00000000004019e1 <addval_476>:
  4019e1:	8d 87 89 ce 28 d2    	lea    -0x2dd73177(%rdi),%eax
  4019e7:	c3                   	retq   

00000000004019e8 <addval_444>:
  4019e8:	8d 87 89 c2 38 db    	lea    -0x24c73d77(%rdi),%eax
  4019ee:	c3                   	retq   

00000000004019ef <getval_160>:
  4019ef:	b8 48 88 e0 c3       	mov    $0xc3e08848,%eax
  4019f4:	c3                   	retq   

00000000004019f5 <end_farm>:
  4019f5:	b8 01 00 00 00       	mov    $0x1,%eax
  4019fa:	c3                   	retq   
  4019fb:	0f 1f 44 00 00       	nopl   0x0(%rax,%rax,1)

0000000000401a00 <save_char>:
  401a00:	8b 05 fe 46 20 00    	mov    0x2046fe(%rip),%eax        # 606104 <gets_cnt>
  401a06:	3d ff 03 00 00       	cmp    $0x3ff,%eax
  401a0b:	7f 49                	jg     401a56 <save_char+0x56>
  401a0d:	8d 14 40             	lea    (%rax,%rax,2),%edx
  401a10:	89 f9                	mov    %edi,%ecx
  401a12:	c0 e9 04             	shr    $0x4,%cl
  401a15:	83 e1 0f             	and    $0xf,%ecx
  401a18:	0f b6 b1 b0 33 40 00 	movzbl 0x4033b0(%rcx),%esi
  401a1f:	48 63 ca             	movslq %edx,%rcx
  401a22:	40 88 b1 00 55 60 00 	mov    %sil,0x605500(%rcx)
  401a29:	8d 4a 01             	lea    0x1(%rdx),%ecx
  401a2c:	83 e7 0f             	and    $0xf,%edi
  401a2f:	0f b6 b7 b0 33 40 00 	movzbl 0x4033b0(%rdi),%esi
  401a36:	48 63 c9             	movslq %ecx,%rcx
  401a39:	40 88 b1 00 55 60 00 	mov    %sil,0x605500(%rcx)
  401a40:	83 c2 02             	add    $0x2,%edx
  401a43:	48 63 d2             	movslq %edx,%rdx
  401a46:	c6 82 00 55 60 00 20 	movb   $0x20,0x605500(%rdx)
  401a4d:	83 c0 01             	add    $0x1,%eax
  401a50:	89 05 ae 46 20 00    	mov    %eax,0x2046ae(%rip)        # 606104 <gets_cnt>
  401a56:	f3 c3                	repz retq 

0000000000401a58 <save_term>:
  401a58:	8b 05 a6 46 20 00    	mov    0x2046a6(%rip),%eax        # 606104 <gets_cnt>
  401a5e:	8d 04 40             	lea    (%rax,%rax,2),%eax
  401a61:	48 98                	cltq   
  401a63:	c6 80 00 55 60 00 00 	movb   $0x0,0x605500(%rax)
  401a6a:	c3                   	retq   

0000000000401a6b <check_fail>:
  401a6b:	48 83 ec 08          	sub    $0x8,%rsp
  401a6f:	0f be 35 92 46 20 00 	movsbl 0x204692(%rip),%esi        # 606108 <target_prefix>
  401a76:	b9 00 55 60 00       	mov    $0x605500,%ecx
  401a7b:	8b 15 57 3a 20 00    	mov    0x203a57(%rip),%edx        # 6054d8 <check_level>
  401a81:	bf b3 30 40 00       	mov    $0x4030b3,%edi
  401a86:	b8 00 00 00 00       	mov    $0x0,%eax
  401a8b:	e8 60 f2 ff ff       	callq  400cf0 <printf@plt>
  401a90:	bf 01 00 00 00       	mov    $0x1,%edi
  401a95:	e8 b6 f3 ff ff       	callq  400e50 <exit@plt>

0000000000401a9a <Gets>:
  401a9a:	41 54                	push   %r12
  401a9c:	55                   	push   %rbp
  401a9d:	53                   	push   %rbx
  401a9e:	49 89 fc             	mov    %rdi,%r12
  401aa1:	c7 05 59 46 20 00 00 	movl   $0x0,0x204659(%rip)        # 606104 <gets_cnt>
  401aa8:	00 00 00 
  401aab:	48 89 fb             	mov    %rdi,%rbx
  401aae:	eb 11                	jmp    401ac1 <Gets+0x27>
  401ab0:	48 8d 6b 01          	lea    0x1(%rbx),%rbp
  401ab4:	88 03                	mov    %al,(%rbx)
  401ab6:	0f b6 f8             	movzbl %al,%edi
  401ab9:	e8 42 ff ff ff       	callq  401a00 <save_char>
  401abe:	48 89 eb             	mov    %rbp,%rbx
  401ac1:	48 8b 3d 08 3a 20 00 	mov    0x203a08(%rip),%rdi        # 6054d0 <infile>
  401ac8:	e8 f3 f2 ff ff       	callq  400dc0 <_IO_getc@plt>
  401acd:	83 f8 ff             	cmp    $0xffffffff,%eax
  401ad0:	74 05                	je     401ad7 <Gets+0x3d>
  401ad2:	83 f8 0a             	cmp    $0xa,%eax
  401ad5:	75 d9                	jne    401ab0 <Gets+0x16>
  401ad7:	c6 03 00             	movb   $0x0,(%rbx)
  401ada:	b8 00 00 00 00       	mov    $0x0,%eax
  401adf:	e8 74 ff ff ff       	callq  401a58 <save_term>
  401ae4:	4c 89 e0             	mov    %r12,%rax
  401ae7:	5b                   	pop    %rbx
  401ae8:	5d                   	pop    %rbp
  401ae9:	41 5c                	pop    %r12
  401aeb:	c3                   	retq   

0000000000401aec <notify_server>:
  401aec:	83 3d f5 39 20 00 00 	cmpl   $0x0,0x2039f5(%rip)        # 6054e8 <is_checker>
  401af3:	0f 85 8e 01 00 00    	jne    401c87 <notify_server+0x19b>
  401af9:	53                   	push   %rbx
  401afa:	48 81 ec 10 40 00 00 	sub    $0x4010,%rsp
  401b01:	89 fb                	mov    %edi,%ebx
  401b03:	8b 05 fb 45 20 00    	mov    0x2045fb(%rip),%eax        # 606104 <gets_cnt>
  401b09:	83 c0 64             	add    $0x64,%eax
  401b0c:	3d 00 20 00 00       	cmp    $0x2000,%eax
  401b11:	7e 19                	jle    401b2c <notify_server+0x40>
  401b13:	bf e8 31 40 00       	mov    $0x4031e8,%edi
  401b18:	b8 00 00 00 00       	mov    $0x0,%eax
  401b1d:	e8 ce f1 ff ff       	callq  400cf0 <printf@plt>
  401b22:	bf 01 00 00 00       	mov    $0x1,%edi
  401b27:	e8 24 f3 ff ff       	callq  400e50 <exit@plt>
  401b2c:	44 0f be 0d d4 45 20 	movsbl 0x2045d4(%rip),%r9d        # 606108 <target_prefix>
  401b33:	00 
  401b34:	83 3d 4d 39 20 00 00 	cmpl   $0x0,0x20394d(%rip)        # 605488 <notify>
  401b3b:	74 09                	je     401b46 <notify_server+0x5a>
  401b3d:	44 8b 05 9c 39 20 00 	mov    0x20399c(%rip),%r8d        # 6054e0 <authkey>
  401b44:	eb 06                	jmp    401b4c <notify_server+0x60>
  401b46:	41 b8 ff ff ff ff    	mov    $0xffffffff,%r8d
  401b4c:	85 db                	test   %ebx,%ebx
  401b4e:	74 07                	je     401b57 <notify_server+0x6b>
  401b50:	b9 c9 30 40 00       	mov    $0x4030c9,%ecx
  401b55:	eb 05                	jmp    401b5c <notify_server+0x70>
  401b57:	b9 ce 30 40 00       	mov    $0x4030ce,%ecx
  401b5c:	48 c7 44 24 08 00 55 	movq   $0x605500,0x8(%rsp)
  401b63:	60 00 
  401b65:	89 34 24             	mov    %esi,(%rsp)
  401b68:	8b 15 da 35 20 00    	mov    0x2035da(%rip),%edx        # 605148 <target_id>
  401b6e:	be d3 30 40 00       	mov    $0x4030d3,%esi
  401b73:	48 8d bc 24 10 20 00 	lea    0x2010(%rsp),%rdi
  401b7a:	00 
  401b7b:	b8 00 00 00 00       	mov    $0x0,%eax
  401b80:	e8 bb f2 ff ff       	callq  400e40 <sprintf@plt>
  401b85:	83 3d fc 38 20 00 00 	cmpl   $0x0,0x2038fc(%rip)        # 605488 <notify>
  401b8c:	74 78                	je     401c06 <notify_server+0x11a>
  401b8e:	85 db                	test   %ebx,%ebx
  401b90:	74 68                	je     401bfa <notify_server+0x10e>
  401b92:	4c 8d 4c 24 10       	lea    0x10(%rsp),%r9
  401b97:	41 b8 00 00 00 00    	mov    $0x0,%r8d
  401b9d:	48 8d 8c 24 10 20 00 	lea    0x2010(%rsp),%rcx
  401ba4:	00 
  401ba5:	48 8b 15 a4 35 20 00 	mov    0x2035a4(%rip),%rdx        # 605150 <lab>
  401bac:	48 8b 35 a5 35 20 00 	mov    0x2035a5(%rip),%rsi        # 605158 <course>
  401bb3:	48 8b 3d 86 35 20 00 	mov    0x203586(%rip),%rdi        # 605140 <user_id>
  401bba:	e8 c0 0f 00 00       	callq  402b7f <driver_post>
  401bbf:	85 c0                	test   %eax,%eax
  401bc1:	79 1e                	jns    401be1 <notify_server+0xf5>
  401bc3:	48 8d 74 24 10       	lea    0x10(%rsp),%rsi
  401bc8:	bf ef 30 40 00       	mov    $0x4030ef,%edi
  401bcd:	b8 00 00 00 00       	mov    $0x0,%eax
  401bd2:	e8 19 f1 ff ff       	callq  400cf0 <printf@plt>
  401bd7:	bf 01 00 00 00       	mov    $0x1,%edi
  401bdc:	e8 6f f2 ff ff       	callq  400e50 <exit@plt>
  401be1:	bf 18 32 40 00       	mov    $0x403218,%edi
  401be6:	e8 d5 f0 ff ff       	callq  400cc0 <puts@plt>
  401beb:	bf fb 30 40 00       	mov    $0x4030fb,%edi
  401bf0:	e8 cb f0 ff ff       	callq  400cc0 <puts@plt>
  401bf5:	e9 85 00 00 00       	jmpq   401c7f <notify_server+0x193>
  401bfa:	bf 05 31 40 00       	mov    $0x403105,%edi
  401bff:	e8 bc f0 ff ff       	callq  400cc0 <puts@plt>
  401c04:	eb 79                	jmp    401c7f <notify_server+0x193>
  401c06:	85 db                	test   %ebx,%ebx
  401c08:	74 08                	je     401c12 <notify_server+0x126>
  401c0a:	be c9 30 40 00       	mov    $0x4030c9,%esi
  401c0f:	90                   	nop
  401c10:	eb 05                	jmp    401c17 <notify_server+0x12b>
  401c12:	be ce 30 40 00       	mov    $0x4030ce,%esi
  401c17:	bf 50 32 40 00       	mov    $0x403250,%edi
  401c1c:	b8 00 00 00 00       	mov    $0x0,%eax
  401c21:	e8 ca f0 ff ff       	callq  400cf0 <printf@plt>
  401c26:	48 8b 35 13 35 20 00 	mov    0x203513(%rip),%rsi        # 605140 <user_id>
  401c2d:	bf 0c 31 40 00       	mov    $0x40310c,%edi
  401c32:	b8 00 00 00 00       	mov    $0x0,%eax
  401c37:	e8 b4 f0 ff ff       	callq  400cf0 <printf@plt>
  401c3c:	48 8b 35 15 35 20 00 	mov    0x203515(%rip),%rsi        # 605158 <course>
  401c43:	bf 19 31 40 00       	mov    $0x403119,%edi
  401c48:	b8 00 00 00 00       	mov    $0x0,%eax
  401c4d:	e8 9e f0 ff ff       	callq  400cf0 <printf@plt>
  401c52:	48 8b 35 f7 34 20 00 	mov    0x2034f7(%rip),%rsi        # 605150 <lab>
  401c59:	bf 25 31 40 00       	mov    $0x403125,%edi
  401c5e:	b8 00 00 00 00       	mov    $0x0,%eax
  401c63:	e8 88 f0 ff ff       	callq  400cf0 <printf@plt>
  401c68:	48 8d b4 24 10 20 00 	lea    0x2010(%rsp),%rsi
  401c6f:	00 
  401c70:	bf 2e 31 40 00       	mov    $0x40312e,%edi
  401c75:	b8 00 00 00 00       	mov    $0x0,%eax
  401c7a:	e8 71 f0 ff ff       	callq  400cf0 <printf@plt>
  401c7f:	48 81 c4 10 40 00 00 	add    $0x4010,%rsp
  401c86:	5b                   	pop    %rbx
  401c87:	f3 c3                	repz retq 

0000000000401c89 <validate>:
  401c89:	53                   	push   %rbx
  401c8a:	89 fb                	mov    %edi,%ebx
  401c8c:	83 3d 55 38 20 00 00 	cmpl   $0x0,0x203855(%rip)        # 6054e8 <is_checker>
  401c93:	74 60                	je     401cf5 <validate+0x6c>
  401c95:	39 3d 41 38 20 00    	cmp    %edi,0x203841(%rip)        # 6054dc <vlevel>
  401c9b:	74 14                	je     401cb1 <validate+0x28>
  401c9d:	bf 3a 31 40 00       	mov    $0x40313a,%edi
  401ca2:	e8 19 f0 ff ff       	callq  400cc0 <puts@plt>
  401ca7:	b8 00 00 00 00       	mov    $0x0,%eax
  401cac:	e8 ba fd ff ff       	callq  401a6b <check_fail>
  401cb1:	8b 35 21 38 20 00    	mov    0x203821(%rip),%esi        # 6054d8 <check_level>
  401cb7:	39 fe                	cmp    %edi,%esi
  401cb9:	74 1b                	je     401cd6 <validate+0x4d>
  401cbb:	89 fa                	mov    %edi,%edx
  401cbd:	bf 78 32 40 00       	mov    $0x403278,%edi
  401cc2:	b8 00 00 00 00       	mov    $0x0,%eax
  401cc7:	e8 24 f0 ff ff       	callq  400cf0 <printf@plt>
  401ccc:	b8 00 00 00 00       	mov    $0x0,%eax
  401cd1:	e8 95 fd ff ff       	callq  401a6b <check_fail>
  401cd6:	0f be 35 2b 44 20 00 	movsbl 0x20442b(%rip),%esi        # 606108 <target_prefix>
  401cdd:	b9 00 55 60 00       	mov    $0x605500,%ecx
  401ce2:	89 fa                	mov    %edi,%edx
  401ce4:	bf 58 31 40 00       	mov    $0x403158,%edi
  401ce9:	b8 00 00 00 00       	mov    $0x0,%eax
  401cee:	e8 fd ef ff ff       	callq  400cf0 <printf@plt>
  401cf3:	eb 44                	jmp    401d39 <validate+0xb0>
  401cf5:	39 3d e1 37 20 00    	cmp    %edi,0x2037e1(%rip)        # 6054dc <vlevel>
  401cfb:	74 18                	je     401d15 <validate+0x8c>
  401cfd:	bf 3a 31 40 00       	mov    $0x40313a,%edi
  401d02:	e8 b9 ef ff ff       	callq  400cc0 <puts@plt>
  401d07:	89 de                	mov    %ebx,%esi
  401d09:	bf 00 00 00 00       	mov    $0x0,%edi
  401d0e:	e8 d9 fd ff ff       	callq  401aec <notify_server>
  401d13:	eb 24                	jmp    401d39 <validate+0xb0>
  401d15:	0f be 15 ec 43 20 00 	movsbl 0x2043ec(%rip),%edx        # 606108 <target_prefix>
  401d1c:	89 fe                	mov    %edi,%esi
  401d1e:	bf a0 32 40 00       	mov    $0x4032a0,%edi
  401d23:	b8 00 00 00 00       	mov    $0x0,%eax
  401d28:	e8 c3 ef ff ff       	callq  400cf0 <printf@plt>
  401d2d:	89 de                	mov    %ebx,%esi
  401d2f:	bf 01 00 00 00       	mov    $0x1,%edi
  401d34:	e8 b3 fd ff ff       	callq  401aec <notify_server>
  401d39:	5b                   	pop    %rbx
  401d3a:	c3                   	retq   

0000000000401d3b <fail>:
  401d3b:	48 83 ec 08          	sub    $0x8,%rsp
  401d3f:	83 3d a2 37 20 00 00 	cmpl   $0x0,0x2037a2(%rip)        # 6054e8 <is_checker>
  401d46:	74 0a                	je     401d52 <fail+0x17>
  401d48:	b8 00 00 00 00       	mov    $0x0,%eax
  401d4d:	e8 19 fd ff ff       	callq  401a6b <check_fail>
  401d52:	89 fe                	mov    %edi,%esi
  401d54:	bf 00 00 00 00       	mov    $0x0,%edi
  401d59:	e8 8e fd ff ff       	callq  401aec <notify_server>
  401d5e:	48 83 c4 08          	add    $0x8,%rsp
  401d62:	c3                   	retq   

0000000000401d63 <bushandler>:
  401d63:	48 83 ec 08          	sub    $0x8,%rsp
  401d67:	83 3d 7a 37 20 00 00 	cmpl   $0x0,0x20377a(%rip)        # 6054e8 <is_checker>
  401d6e:	74 14                	je     401d84 <bushandler+0x21>
  401d70:	bf 6d 31 40 00       	mov    $0x40316d,%edi
  401d75:	e8 46 ef ff ff       	callq  400cc0 <puts@plt>
  401d7a:	b8 00 00 00 00       	mov    $0x0,%eax
  401d7f:	e8 e7 fc ff ff       	callq  401a6b <check_fail>
  401d84:	bf d8 32 40 00       	mov    $0x4032d8,%edi
  401d89:	e8 32 ef ff ff       	callq  400cc0 <puts@plt>
  401d8e:	bf 77 31 40 00       	mov    $0x403177,%edi
  401d93:	e8 28 ef ff ff       	callq  400cc0 <puts@plt>
  401d98:	be 00 00 00 00       	mov    $0x0,%esi
  401d9d:	bf 00 00 00 00       	mov    $0x0,%edi
  401da2:	e8 45 fd ff ff       	callq  401aec <notify_server>
  401da7:	bf 01 00 00 00       	mov    $0x1,%edi
  401dac:	e8 9f f0 ff ff       	callq  400e50 <exit@plt>

0000000000401db1 <seghandler>:
  401db1:	48 83 ec 08          	sub    $0x8,%rsp
  401db5:	83 3d 2c 37 20 00 00 	cmpl   $0x0,0x20372c(%rip)        # 6054e8 <is_checker>
  401dbc:	74 14                	je     401dd2 <seghandler+0x21>
  401dbe:	bf 8d 31 40 00       	mov    $0x40318d,%edi
  401dc3:	e8 f8 ee ff ff       	callq  400cc0 <puts@plt>
  401dc8:	b8 00 00 00 00       	mov    $0x0,%eax
  401dcd:	e8 99 fc ff ff       	callq  401a6b <check_fail>
  401dd2:	bf f8 32 40 00       	mov    $0x4032f8,%edi
  401dd7:	e8 e4 ee ff ff       	callq  400cc0 <puts@plt>
  401ddc:	bf 77 31 40 00       	mov    $0x403177,%edi
  401de1:	e8 da ee ff ff       	callq  400cc0 <puts@plt>
  401de6:	be 00 00 00 00       	mov    $0x0,%esi
  401deb:	bf 00 00 00 00       	mov    $0x0,%edi
  401df0:	e8 f7 fc ff ff       	callq  401aec <notify_server>
  401df5:	bf 01 00 00 00       	mov    $0x1,%edi
  401dfa:	e8 51 f0 ff ff       	callq  400e50 <exit@plt>

0000000000401dff <illegalhandler>:
  401dff:	48 83 ec 08          	sub    $0x8,%rsp
  401e03:	83 3d de 36 20 00 00 	cmpl   $0x0,0x2036de(%rip)        # 6054e8 <is_checker>
  401e0a:	74 14                	je     401e20 <illegalhandler+0x21>
  401e0c:	bf a0 31 40 00       	mov    $0x4031a0,%edi
  401e11:	e8 aa ee ff ff       	callq  400cc0 <puts@plt>
  401e16:	b8 00 00 00 00       	mov    $0x0,%eax
  401e1b:	e8 4b fc ff ff       	callq  401a6b <check_fail>
  401e20:	bf 20 33 40 00       	mov    $0x403320,%edi
  401e25:	e8 96 ee ff ff       	callq  400cc0 <puts@plt>
  401e2a:	bf 77 31 40 00       	mov    $0x403177,%edi
  401e2f:	e8 8c ee ff ff       	callq  400cc0 <puts@plt>
  401e34:	be 00 00 00 00       	mov    $0x0,%esi
  401e39:	bf 00 00 00 00       	mov    $0x0,%edi
  401e3e:	e8 a9 fc ff ff       	callq  401aec <notify_server>
  401e43:	bf 01 00 00 00       	mov    $0x1,%edi
  401e48:	e8 03 f0 ff ff       	callq  400e50 <exit@plt>

0000000000401e4d <sigalrmhandler>:
  401e4d:	48 83 ec 08          	sub    $0x8,%rsp
  401e51:	83 3d 90 36 20 00 00 	cmpl   $0x0,0x203690(%rip)        # 6054e8 <is_checker>
  401e58:	74 14                	je     401e6e <sigalrmhandler+0x21>
  401e5a:	bf b4 31 40 00       	mov    $0x4031b4,%edi
  401e5f:	e8 5c ee ff ff       	callq  400cc0 <puts@plt>
  401e64:	b8 00 00 00 00       	mov    $0x0,%eax
  401e69:	e8 fd fb ff ff       	callq  401a6b <check_fail>
  401e6e:	be 05 00 00 00       	mov    $0x5,%esi
  401e73:	bf 50 33 40 00       	mov    $0x403350,%edi
  401e78:	b8 00 00 00 00       	mov    $0x0,%eax
  401e7d:	e8 6e ee ff ff       	callq  400cf0 <printf@plt>
  401e82:	be 00 00 00 00       	mov    $0x0,%esi
  401e87:	bf 00 00 00 00       	mov    $0x0,%edi
  401e8c:	e8 5b fc ff ff       	callq  401aec <notify_server>
  401e91:	bf 01 00 00 00       	mov    $0x1,%edi
  401e96:	e8 b5 ef ff ff       	callq  400e50 <exit@plt>

0000000000401e9b <launch>:
  401e9b:	55                   	push   %rbp
  401e9c:	48 89 e5             	mov    %rsp,%rbp
  401e9f:	48 89 fa             	mov    %rdi,%rdx
  401ea2:	48 8d 47 1e          	lea    0x1e(%rdi),%rax
  401ea6:	48 83 e0 f0          	and    $0xfffffffffffffff0,%rax
  401eaa:	48 29 c4             	sub    %rax,%rsp
  401ead:	48 8d 7c 24 0f       	lea    0xf(%rsp),%rdi
  401eb2:	48 83 e7 f0          	and    $0xfffffffffffffff0,%rdi
  401eb6:	be f4 00 00 00       	mov    $0xf4,%esi
  401ebb:	e8 40 ee ff ff       	callq  400d00 <memset@plt>
  401ec0:	48 8b 05 d9 35 20 00 	mov    0x2035d9(%rip),%rax        # 6054a0 <stdin@@GLIBC_2.2.5>
  401ec7:	48 39 05 02 36 20 00 	cmp    %rax,0x203602(%rip)        # 6054d0 <infile>
  401ece:	75 0f                	jne    401edf <launch+0x44>
  401ed0:	bf bc 31 40 00       	mov    $0x4031bc,%edi
  401ed5:	b8 00 00 00 00       	mov    $0x0,%eax
  401eda:	e8 11 ee ff ff       	callq  400cf0 <printf@plt>
  401edf:	c7 05 f3 35 20 00 00 	movl   $0x0,0x2035f3(%rip)        # 6054dc <vlevel>
  401ee6:	00 00 00 
  401ee9:	b8 00 00 00 00       	mov    $0x0,%eax
  401eee:	e8 c6 f9 ff ff       	callq  4018b9 <test>
  401ef3:	83 3d ee 35 20 00 00 	cmpl   $0x0,0x2035ee(%rip)        # 6054e8 <is_checker>
  401efa:	74 14                	je     401f10 <launch+0x75>
  401efc:	bf c9 31 40 00       	mov    $0x4031c9,%edi
  401f01:	e8 ba ed ff ff       	callq  400cc0 <puts@plt>
  401f06:	b8 00 00 00 00       	mov    $0x0,%eax
  401f0b:	e8 5b fb ff ff       	callq  401a6b <check_fail>
  401f10:	bf d4 31 40 00       	mov    $0x4031d4,%edi
  401f15:	e8 a6 ed ff ff       	callq  400cc0 <puts@plt>
  401f1a:	c9                   	leaveq 
  401f1b:	c3                   	retq   

0000000000401f1c <stable_launch>:
  401f1c:	53                   	push   %rbx
  401f1d:	48 89 3d a4 35 20 00 	mov    %rdi,0x2035a4(%rip)        # 6054c8 <global_offset>
  401f24:	41 b9 00 00 00 00    	mov    $0x0,%r9d
  401f2a:	41 b8 00 00 00 00    	mov    $0x0,%r8d
  401f30:	b9 32 01 00 00       	mov    $0x132,%ecx
  401f35:	ba 07 00 00 00       	mov    $0x7,%edx
  401f3a:	be 00 00 10 00       	mov    $0x100000,%esi
  401f3f:	bf 00 60 58 55       	mov    $0x55586000,%edi
  401f44:	e8 97 ed ff ff       	callq  400ce0 <mmap@plt>
  401f49:	48 89 c3             	mov    %rax,%rbx
  401f4c:	48 3d 00 60 58 55    	cmp    $0x55586000,%rax
  401f52:	74 32                	je     401f86 <stable_launch+0x6a>
  401f54:	be 00 00 10 00       	mov    $0x100000,%esi
  401f59:	48 89 c7             	mov    %rax,%rdi
  401f5c:	e8 7f ee ff ff       	callq  400de0 <munmap@plt>
  401f61:	ba 00 60 58 55       	mov    $0x55586000,%edx
  401f66:	be 88 33 40 00       	mov    $0x403388,%esi
  401f6b:	48 8b 3d 3e 35 20 00 	mov    0x20353e(%rip),%rdi        # 6054b0 <stderr@@GLIBC_2.2.5>
  401f72:	b8 00 00 00 00       	mov    $0x0,%eax
  401f77:	e8 f4 ed ff ff       	callq  400d70 <fprintf@plt>
  401f7c:	bf 01 00 00 00       	mov    $0x1,%edi
  401f81:	e8 ca ee ff ff       	callq  400e50 <exit@plt>
  401f86:	48 8d 90 f8 ff 0f 00 	lea    0xffff8(%rax),%rdx
  401f8d:	48 89 15 7c 41 20 00 	mov    %rdx,0x20417c(%rip)        # 606110 <stack_top>
  401f94:	48 89 e0             	mov    %rsp,%rax
  401f97:	48 89 d4             	mov    %rdx,%rsp
  401f9a:	48 89 c2             	mov    %rax,%rdx
  401f9d:	48 89 15 1c 35 20 00 	mov    %rdx,0x20351c(%rip)        # 6054c0 <global_save_stack>
  401fa4:	48 8b 3d 1d 35 20 00 	mov    0x20351d(%rip),%rdi        # 6054c8 <global_offset>
  401fab:	e8 eb fe ff ff       	callq  401e9b <launch>
  401fb0:	48 8b 05 09 35 20 00 	mov    0x203509(%rip),%rax        # 6054c0 <global_save_stack>
  401fb7:	48 89 c4             	mov    %rax,%rsp
  401fba:	be 00 00 10 00       	mov    $0x100000,%esi
  401fbf:	48 89 df             	mov    %rbx,%rdi
  401fc2:	e8 19 ee ff ff       	callq  400de0 <munmap@plt>
  401fc7:	5b                   	pop    %rbx
  401fc8:	c3                   	retq   
  401fc9:	0f 1f 80 00 00 00 00 	nopl   0x0(%rax)

0000000000401fd0 <rio_readinitb>:
  401fd0:	89 37                	mov    %esi,(%rdi)
  401fd2:	c7 47 04 00 00 00 00 	movl   $0x0,0x4(%rdi)
  401fd9:	48 8d 47 10          	lea    0x10(%rdi),%rax
  401fdd:	48 89 47 08          	mov    %rax,0x8(%rdi)
  401fe1:	c3                   	retq   

0000000000401fe2 <sigalrm_handler>:
  401fe2:	48 83 ec 08          	sub    $0x8,%rsp
  401fe6:	ba 00 00 00 00       	mov    $0x0,%edx
  401feb:	be c0 33 40 00       	mov    $0x4033c0,%esi
  401ff0:	48 8b 3d b9 34 20 00 	mov    0x2034b9(%rip),%rdi        # 6054b0 <stderr@@GLIBC_2.2.5>
  401ff7:	b8 00 00 00 00       	mov    $0x0,%eax
  401ffc:	e8 6f ed ff ff       	callq  400d70 <fprintf@plt>
  402001:	bf 01 00 00 00       	mov    $0x1,%edi
  402006:	e8 45 ee ff ff       	callq  400e50 <exit@plt>

000000000040200b <urlencode>:
  40200b:	41 54                	push   %r12
  40200d:	55                   	push   %rbp
  40200e:	53                   	push   %rbx
  40200f:	48 83 ec 10          	sub    $0x10,%rsp
  402013:	48 89 fb             	mov    %rdi,%rbx
  402016:	48 89 f5             	mov    %rsi,%rbp
  402019:	b8 00 00 00 00       	mov    $0x0,%eax
  40201e:	48 c7 c1 ff ff ff ff 	mov    $0xffffffffffffffff,%rcx
  402025:	f2 ae                	repnz scas %es:(%rdi),%al
  402027:	48 f7 d1             	not    %rcx
  40202a:	8d 41 ff             	lea    -0x1(%rcx),%eax
  40202d:	e9 93 00 00 00       	jmpq   4020c5 <urlencode+0xba>
  402032:	0f b6 13             	movzbl (%rbx),%edx
  402035:	80 fa 2a             	cmp    $0x2a,%dl
  402038:	0f 94 c1             	sete   %cl
  40203b:	80 fa 2d             	cmp    $0x2d,%dl
  40203e:	0f 94 c0             	sete   %al
  402041:	08 c1                	or     %al,%cl
  402043:	75 1f                	jne    402064 <urlencode+0x59>
  402045:	80 fa 2e             	cmp    $0x2e,%dl
  402048:	74 1a                	je     402064 <urlencode+0x59>
  40204a:	80 fa 5f             	cmp    $0x5f,%dl
  40204d:	74 15                	je     402064 <urlencode+0x59>
  40204f:	8d 42 d0             	lea    -0x30(%rdx),%eax
  402052:	3c 09                	cmp    $0x9,%al
  402054:	76 0e                	jbe    402064 <urlencode+0x59>
  402056:	8d 42 bf             	lea    -0x41(%rdx),%eax
  402059:	3c 19                	cmp    $0x19,%al
  40205b:	76 07                	jbe    402064 <urlencode+0x59>
  40205d:	8d 42 9f             	lea    -0x61(%rdx),%eax
  402060:	3c 19                	cmp    $0x19,%al
  402062:	77 09                	ja     40206d <urlencode+0x62>
  402064:	88 55 00             	mov    %dl,0x0(%rbp)
  402067:	48 8d 6d 01          	lea    0x1(%rbp),%rbp
  40206b:	eb 51                	jmp    4020be <urlencode+0xb3>
  40206d:	80 fa 20             	cmp    $0x20,%dl
  402070:	75 0a                	jne    40207c <urlencode+0x71>
  402072:	c6 45 00 2b          	movb   $0x2b,0x0(%rbp)
  402076:	48 8d 6d 01          	lea    0x1(%rbp),%rbp
  40207a:	eb 42                	jmp    4020be <urlencode+0xb3>
  40207c:	8d 42 e0             	lea    -0x20(%rdx),%eax
  40207f:	3c 5f                	cmp    $0x5f,%al
  402081:	0f 96 c1             	setbe  %cl
  402084:	80 fa 09             	cmp    $0x9,%dl
  402087:	0f 94 c0             	sete   %al
  40208a:	08 c1                	or     %al,%cl
  40208c:	74 45                	je     4020d3 <urlencode+0xc8>
  40208e:	0f b6 d2             	movzbl %dl,%edx
  402091:	be 58 34 40 00       	mov    $0x403458,%esi
  402096:	48 89 e7             	mov    %rsp,%rdi
  402099:	b8 00 00 00 00       	mov    $0x0,%eax
  40209e:	e8 9d ed ff ff       	callq  400e40 <sprintf@plt>
  4020a3:	0f b6 04 24          	movzbl (%rsp),%eax
  4020a7:	88 45 00             	mov    %al,0x0(%rbp)
  4020aa:	0f b6 44 24 01       	movzbl 0x1(%rsp),%eax
  4020af:	88 45 01             	mov    %al,0x1(%rbp)
  4020b2:	0f b6 44 24 02       	movzbl 0x2(%rsp),%eax
  4020b7:	88 45 02             	mov    %al,0x2(%rbp)
  4020ba:	48 8d 6d 03          	lea    0x3(%rbp),%rbp
  4020be:	48 83 c3 01          	add    $0x1,%rbx
  4020c2:	44 89 e0             	mov    %r12d,%eax
  4020c5:	44 8d 60 ff          	lea    -0x1(%rax),%r12d
  4020c9:	85 c0                	test   %eax,%eax
  4020cb:	0f 85 61 ff ff ff    	jne    402032 <urlencode+0x27>
  4020d1:	eb 05                	jmp    4020d8 <urlencode+0xcd>
  4020d3:	b8 ff ff ff ff       	mov    $0xffffffff,%eax
  4020d8:	48 83 c4 10          	add    $0x10,%rsp
  4020dc:	5b                   	pop    %rbx
  4020dd:	5d                   	pop    %rbp
  4020de:	41 5c                	pop    %r12
  4020e0:	c3                   	retq   

00000000004020e1 <rio_writen>:
  4020e1:	41 55                	push   %r13
  4020e3:	41 54                	push   %r12
  4020e5:	55                   	push   %rbp
  4020e6:	53                   	push   %rbx
  4020e7:	48 83 ec 08          	sub    $0x8,%rsp
  4020eb:	41 89 fc             	mov    %edi,%r12d
  4020ee:	48 89 f5             	mov    %rsi,%rbp
  4020f1:	49 89 d5             	mov    %rdx,%r13
  4020f4:	48 89 d3             	mov    %rdx,%rbx
  4020f7:	eb 28                	jmp    402121 <rio_writen+0x40>
  4020f9:	48 89 da             	mov    %rbx,%rdx
  4020fc:	48 89 ee             	mov    %rbp,%rsi
  4020ff:	44 89 e7             	mov    %r12d,%edi
  402102:	e8 c9 eb ff ff       	callq  400cd0 <write@plt>
  402107:	48 85 c0             	test   %rax,%rax
  40210a:	7f 0f                	jg     40211b <rio_writen+0x3a>
  40210c:	e8 6f eb ff ff       	callq  400c80 <__errno_location@plt>
  402111:	83 38 04             	cmpl   $0x4,(%rax)
  402114:	75 15                	jne    40212b <rio_writen+0x4a>
  402116:	b8 00 00 00 00       	mov    $0x0,%eax
  40211b:	48 29 c3             	sub    %rax,%rbx
  40211e:	48 01 c5             	add    %rax,%rbp
  402121:	48 85 db             	test   %rbx,%rbx
  402124:	75 d3                	jne    4020f9 <rio_writen+0x18>
  402126:	4c 89 e8             	mov    %r13,%rax
  402129:	eb 07                	jmp    402132 <rio_writen+0x51>
  40212b:	48 c7 c0 ff ff ff ff 	mov    $0xffffffffffffffff,%rax
  402132:	48 83 c4 08          	add    $0x8,%rsp
  402136:	5b                   	pop    %rbx
  402137:	5d                   	pop    %rbp
  402138:	41 5c                	pop    %r12
  40213a:	41 5d                	pop    %r13
  40213c:	c3                   	retq   

000000000040213d <rio_read>:
  40213d:	41 56                	push   %r14
  40213f:	41 55                	push   %r13
  402141:	41 54                	push   %r12
  402143:	55                   	push   %rbp
  402144:	53                   	push   %rbx
  402145:	48 89 fb             	mov    %rdi,%rbx
  402148:	49 89 f6             	mov    %rsi,%r14
  40214b:	49 89 d5             	mov    %rdx,%r13
  40214e:	4c 8d 67 10          	lea    0x10(%rdi),%r12
  402152:	eb 2a                	jmp    40217e <rio_read+0x41>
  402154:	ba 00 20 00 00       	mov    $0x2000,%edx
  402159:	4c 89 e6             	mov    %r12,%rsi
  40215c:	8b 3b                	mov    (%rbx),%edi
  40215e:	e8 cd eb ff ff       	callq  400d30 <read@plt>
  402163:	89 43 04             	mov    %eax,0x4(%rbx)
  402166:	85 c0                	test   %eax,%eax
  402168:	79 0c                	jns    402176 <rio_read+0x39>
  40216a:	e8 11 eb ff ff       	callq  400c80 <__errno_location@plt>
  40216f:	83 38 04             	cmpl   $0x4,(%rax)
  402172:	74 0a                	je     40217e <rio_read+0x41>
  402174:	eb 37                	jmp    4021ad <rio_read+0x70>
  402176:	85 c0                	test   %eax,%eax
  402178:	74 3c                	je     4021b6 <rio_read+0x79>
  40217a:	4c 89 63 08          	mov    %r12,0x8(%rbx)
  40217e:	8b 6b 04             	mov    0x4(%rbx),%ebp
  402181:	85 ed                	test   %ebp,%ebp
  402183:	7e cf                	jle    402154 <rio_read+0x17>
  402185:	89 e8                	mov    %ebp,%eax
  402187:	4c 39 e8             	cmp    %r13,%rax
  40218a:	72 03                	jb     40218f <rio_read+0x52>
  40218c:	44 89 ed             	mov    %r13d,%ebp
  40218f:	4c 63 e5             	movslq %ebp,%r12
  402192:	48 8b 73 08          	mov    0x8(%rbx),%rsi
  402196:	4c 89 e2             	mov    %r12,%rdx
  402199:	4c 89 f7             	mov    %r14,%rdi
  40219c:	e8 ef eb ff ff       	callq  400d90 <memcpy@plt>
  4021a1:	4c 01 63 08          	add    %r12,0x8(%rbx)
  4021a5:	29 6b 04             	sub    %ebp,0x4(%rbx)
  4021a8:	4c 89 e0             	mov    %r12,%rax
  4021ab:	eb 0e                	jmp    4021bb <rio_read+0x7e>
  4021ad:	48 c7 c0 ff ff ff ff 	mov    $0xffffffffffffffff,%rax
  4021b4:	eb 05                	jmp    4021bb <rio_read+0x7e>
  4021b6:	b8 00 00 00 00       	mov    $0x0,%eax
  4021bb:	5b                   	pop    %rbx
  4021bc:	5d                   	pop    %rbp
  4021bd:	41 5c                	pop    %r12
  4021bf:	41 5d                	pop    %r13
  4021c1:	41 5e                	pop    %r14
  4021c3:	c3                   	retq   

00000000004021c4 <rio_readlineb>:
  4021c4:	41 55                	push   %r13
  4021c6:	41 54                	push   %r12
  4021c8:	55                   	push   %rbp
  4021c9:	53                   	push   %rbx
  4021ca:	48 83 ec 18          	sub    $0x18,%rsp
  4021ce:	49 89 fd             	mov    %rdi,%r13
  4021d1:	48 89 f5             	mov    %rsi,%rbp
  4021d4:	49 89 d4             	mov    %rdx,%r12
  4021d7:	bb 01 00 00 00       	mov    $0x1,%ebx
  4021dc:	eb 3d                	jmp    40221b <rio_readlineb+0x57>
  4021de:	ba 01 00 00 00       	mov    $0x1,%edx
  4021e3:	48 8d 74 24 0f       	lea    0xf(%rsp),%rsi
  4021e8:	4c 89 ef             	mov    %r13,%rdi
  4021eb:	e8 4d ff ff ff       	callq  40213d <rio_read>
  4021f0:	83 f8 01             	cmp    $0x1,%eax
  4021f3:	75 12                	jne    402207 <rio_readlineb+0x43>
  4021f5:	48 8d 55 01          	lea    0x1(%rbp),%rdx
  4021f9:	0f b6 44 24 0f       	movzbl 0xf(%rsp),%eax
  4021fe:	88 45 00             	mov    %al,0x0(%rbp)
  402201:	3c 0a                	cmp    $0xa,%al
  402203:	75 0f                	jne    402214 <rio_readlineb+0x50>
  402205:	eb 1b                	jmp    402222 <rio_readlineb+0x5e>
  402207:	85 c0                	test   %eax,%eax
  402209:	75 23                	jne    40222e <rio_readlineb+0x6a>
  40220b:	48 83 fb 01          	cmp    $0x1,%rbx
  40220f:	90                   	nop
  402210:	75 13                	jne    402225 <rio_readlineb+0x61>
  402212:	eb 23                	jmp    402237 <rio_readlineb+0x73>
  402214:	48 83 c3 01          	add    $0x1,%rbx
  402218:	48 89 d5             	mov    %rdx,%rbp
  40221b:	4c 39 e3             	cmp    %r12,%rbx
  40221e:	72 be                	jb     4021de <rio_readlineb+0x1a>
  402220:	eb 03                	jmp    402225 <rio_readlineb+0x61>
  402222:	48 89 d5             	mov    %rdx,%rbp
  402225:	c6 45 00 00          	movb   $0x0,0x0(%rbp)
  402229:	48 89 d8             	mov    %rbx,%rax
  40222c:	eb 0e                	jmp    40223c <rio_readlineb+0x78>
  40222e:	48 c7 c0 ff ff ff ff 	mov    $0xffffffffffffffff,%rax
  402235:	eb 05                	jmp    40223c <rio_readlineb+0x78>
  402237:	b8 00 00 00 00       	mov    $0x0,%eax
  40223c:	48 83 c4 18          	add    $0x18,%rsp
  402240:	5b                   	pop    %rbx
  402241:	5d                   	pop    %rbp
  402242:	41 5c                	pop    %r12
  402244:	41 5d                	pop    %r13
  402246:	c3                   	retq   

0000000000402247 <submitr>:
  402247:	41 57                	push   %r15
  402249:	41 56                	push   %r14
  40224b:	41 55                	push   %r13
  40224d:	41 54                	push   %r12
  40224f:	55                   	push   %rbp
  402250:	53                   	push   %rbx
  402251:	48 81 ec 48 a0 00 00 	sub    $0xa048,%rsp
  402258:	49 89 fc             	mov    %rdi,%r12
  40225b:	89 74 24 04          	mov    %esi,0x4(%rsp)
  40225f:	49 89 d7             	mov    %rdx,%r15
  402262:	49 89 ce             	mov    %rcx,%r14
  402265:	4c 89 44 24 08       	mov    %r8,0x8(%rsp)
  40226a:	4d 89 cd             	mov    %r9,%r13
  40226d:	48 8b 9c 24 80 a0 00 	mov    0xa080(%rsp),%rbx
  402274:	00 
  402275:	c7 84 24 1c 20 00 00 	movl   $0x0,0x201c(%rsp)
  40227c:	00 00 00 00 
  402280:	ba 00 00 00 00       	mov    $0x0,%edx
  402285:	be 01 00 00 00       	mov    $0x1,%esi
  40228a:	bf 02 00 00 00       	mov    $0x2,%edi
  40228f:	e8 dc eb ff ff       	callq  400e70 <socket@plt>
  402294:	89 c5                	mov    %eax,%ebp
  402296:	85 c0                	test   %eax,%eax
  402298:	79 4e                	jns    4022e8 <submitr+0xa1>
  40229a:	48 b8 45 72 72 6f 72 	movabs $0x43203a726f727245,%rax
  4022a1:	3a 20 43 
  4022a4:	48 89 03             	mov    %rax,(%rbx)
  4022a7:	48 b8 6c 69 65 6e 74 	movabs $0x6e7520746e65696c,%rax
  4022ae:	20 75 6e 
  4022b1:	48 89 43 08          	mov    %rax,0x8(%rbx)
  4022b5:	48 b8 61 62 6c 65 20 	movabs $0x206f7420656c6261,%rax
  4022bc:	74 6f 20 
  4022bf:	48 89 43 10          	mov    %rax,0x10(%rbx)
  4022c3:	48 b8 63 72 65 61 74 	movabs $0x7320657461657263,%rax
  4022ca:	65 20 73 
  4022cd:	48 89 43 18          	mov    %rax,0x18(%rbx)
  4022d1:	c7 43 20 6f 63 6b 65 	movl   $0x656b636f,0x20(%rbx)
  4022d8:	66 c7 43 24 74 00    	movw   $0x74,0x24(%rbx)
  4022de:	b8 ff ff ff ff       	mov    $0xffffffff,%eax
  4022e3:	e9 94 06 00 00       	jmpq   40297c <submitr+0x735>
  4022e8:	4c 89 e7             	mov    %r12,%rdi
  4022eb:	e8 70 ea ff ff       	callq  400d60 <gethostbyname@plt>
  4022f0:	48 85 c0             	test   %rax,%rax
  4022f3:	75 67                	jne    40235c <submitr+0x115>
  4022f5:	48 b8 45 72 72 6f 72 	movabs $0x44203a726f727245,%rax
  4022fc:	3a 20 44 
  4022ff:	48 89 03             	mov    %rax,(%rbx)
  402302:	48 b8 4e 53 20 69 73 	movabs $0x6e7520736920534e,%rax
  402309:	20 75 6e 
  40230c:	48 89 43 08          	mov    %rax,0x8(%rbx)
  402310:	48 b8 61 62 6c 65 20 	movabs $0x206f7420656c6261,%rax
  402317:	74 6f 20 
  40231a:	48 89 43 10          	mov    %rax,0x10(%rbx)
  40231e:	48 b8 72 65 73 6f 6c 	movabs $0x2065766c6f736572,%rax
  402325:	76 65 20 
  402328:	48 89 43 18          	mov    %rax,0x18(%rbx)
  40232c:	48 b8 73 65 72 76 65 	movabs $0x6120726576726573,%rax
  402333:	72 20 61 
  402336:	48 89 43 20          	mov    %rax,0x20(%rbx)
  40233a:	c7 43 28 64 64 72 65 	movl   $0x65726464,0x28(%rbx)
  402341:	66 c7 43 2c 73 73    	movw   $0x7373,0x2c(%rbx)
  402347:	c6 43 2e 00          	movb   $0x0,0x2e(%rbx)
  40234b:	89 ef                	mov    %ebp,%edi
  40234d:	e8 ce e9 ff ff       	callq  400d20 <close@plt>
  402352:	b8 ff ff ff ff       	mov    $0xffffffff,%eax
  402357:	e9 20 06 00 00       	jmpq   40297c <submitr+0x735>
  40235c:	48 c7 84 24 30 a0 00 	movq   $0x0,0xa030(%rsp)
  402363:	00 00 00 00 00 
  402368:	48 c7 84 24 38 a0 00 	movq   $0x0,0xa038(%rsp)
  40236f:	00 00 00 00 00 
  402374:	66 c7 84 24 30 a0 00 	movw   $0x2,0xa030(%rsp)
  40237b:	00 02 00 
  40237e:	48 8b 48 18          	mov    0x18(%rax),%rcx
  402382:	48 63 50 14          	movslq 0x14(%rax),%rdx
  402386:	48 8d b4 24 34 a0 00 	lea    0xa034(%rsp),%rsi
  40238d:	00 
  40238e:	48 8b 39             	mov    (%rcx),%rdi
  402391:	e8 5a ea ff ff       	callq  400df0 <bcopy@plt>
  402396:	0f b7 44 24 04       	movzwl 0x4(%rsp),%eax
  40239b:	66 c1 c8 08          	ror    $0x8,%ax
  40239f:	66 89 84 24 32 a0 00 	mov    %ax,0xa032(%rsp)
  4023a6:	00 
  4023a7:	ba 10 00 00 00       	mov    $0x10,%edx
  4023ac:	48 8d b4 24 30 a0 00 	lea    0xa030(%rsp),%rsi
  4023b3:	00 
  4023b4:	89 ef                	mov    %ebp,%edi
  4023b6:	e8 a5 ea ff ff       	callq  400e60 <connect@plt>
  4023bb:	85 c0                	test   %eax,%eax
  4023bd:	79 59                	jns    402418 <submitr+0x1d1>
  4023bf:	48 b8 45 72 72 6f 72 	movabs $0x55203a726f727245,%rax
  4023c6:	3a 20 55 
  4023c9:	48 89 03             	mov    %rax,(%rbx)
  4023cc:	48 b8 6e 61 62 6c 65 	movabs $0x6f7420656c62616e,%rax
  4023d3:	20 74 6f 
  4023d6:	48 89 43 08          	mov    %rax,0x8(%rbx)
  4023da:	48 b8 20 63 6f 6e 6e 	movabs $0x7463656e6e6f6320,%rax
  4023e1:	65 63 74 
  4023e4:	48 89 43 10          	mov    %rax,0x10(%rbx)
  4023e8:	48 b8 20 74 6f 20 74 	movabs $0x20656874206f7420,%rax
  4023ef:	68 65 20 
  4023f2:	48 89 43 18          	mov    %rax,0x18(%rbx)
  4023f6:	c7 43 20 73 65 72 76 	movl   $0x76726573,0x20(%rbx)
  4023fd:	66 c7 43 24 65 72    	movw   $0x7265,0x24(%rbx)
  402403:	c6 43 26 00          	movb   $0x0,0x26(%rbx)
  402407:	89 ef                	mov    %ebp,%edi
  402409:	e8 12 e9 ff ff       	callq  400d20 <close@plt>
  40240e:	b8 ff ff ff ff       	mov    $0xffffffff,%eax
  402413:	e9 64 05 00 00       	jmpq   40297c <submitr+0x735>
  402418:	48 c7 c2 ff ff ff ff 	mov    $0xffffffffffffffff,%rdx
  40241f:	4c 89 ef             	mov    %r13,%rdi
  402422:	b8 00 00 00 00       	mov    $0x0,%eax
  402427:	48 89 d1             	mov    %rdx,%rcx
  40242a:	f2 ae                	repnz scas %es:(%rdi),%al
  40242c:	48 f7 d1             	not    %rcx
  40242f:	48 89 ce             	mov    %rcx,%rsi
  402432:	4c 89 ff             	mov    %r15,%rdi
  402435:	48 89 d1             	mov    %rdx,%rcx
  402438:	f2 ae                	repnz scas %es:(%rdi),%al
  40243a:	48 f7 d1             	not    %rcx
  40243d:	49 89 c8             	mov    %rcx,%r8
  402440:	4c 89 f7             	mov    %r14,%rdi
  402443:	48 89 d1             	mov    %rdx,%rcx
  402446:	f2 ae                	repnz scas %es:(%rdi),%al
  402448:	49 29 c8             	sub    %rcx,%r8
  40244b:	48 8b 7c 24 08       	mov    0x8(%rsp),%rdi
  402450:	48 89 d1             	mov    %rdx,%rcx
  402453:	f2 ae                	repnz scas %es:(%rdi),%al
  402455:	49 29 c8             	sub    %rcx,%r8
  402458:	48 8d 44 76 fd       	lea    -0x3(%rsi,%rsi,2),%rax
  40245d:	49 8d 44 00 7b       	lea    0x7b(%r8,%rax,1),%rax
  402462:	48 3d 00 20 00 00    	cmp    $0x2000,%rax
  402468:	76 72                	jbe    4024dc <submitr+0x295>
  40246a:	48 b8 45 72 72 6f 72 	movabs $0x52203a726f727245,%rax
  402471:	3a 20 52 
  402474:	48 89 03             	mov    %rax,(%rbx)
  402477:	48 b8 65 73 75 6c 74 	movabs $0x747320746c757365,%rax
  40247e:	20 73 74 
  402481:	48 89 43 08          	mov    %rax,0x8(%rbx)
  402485:	48 b8 72 69 6e 67 20 	movabs $0x6f6f7420676e6972,%rax
  40248c:	74 6f 6f 
  40248f:	48 89 43 10          	mov    %rax,0x10(%rbx)
  402493:	48 b8 20 6c 61 72 67 	movabs $0x202e656772616c20,%rax
  40249a:	65 2e 20 
  40249d:	48 89 43 18          	mov    %rax,0x18(%rbx)
  4024a1:	48 b8 49 6e 63 72 65 	movabs $0x6573616572636e49,%rax
  4024a8:	61 73 65 
  4024ab:	48 89 43 20          	mov    %rax,0x20(%rbx)
  4024af:	48 b8 20 53 55 42 4d 	movabs $0x5254494d42555320,%rax
  4024b6:	49 54 52 
  4024b9:	48 89 43 28          	mov    %rax,0x28(%rbx)
  4024bd:	48 b8 5f 4d 41 58 42 	movabs $0x46554258414d5f,%rax
  4024c4:	55 46 00 
  4024c7:	48 89 43 30          	mov    %rax,0x30(%rbx)
  4024cb:	89 ef                	mov    %ebp,%edi
  4024cd:	e8 4e e8 ff ff       	callq  400d20 <close@plt>
  4024d2:	b8 ff ff ff ff       	mov    $0xffffffff,%eax
  4024d7:	e9 a0 04 00 00       	jmpq   40297c <submitr+0x735>
  4024dc:	48 8d b4 24 20 40 00 	lea    0x4020(%rsp),%rsi
  4024e3:	00 
  4024e4:	b9 00 04 00 00       	mov    $0x400,%ecx
  4024e9:	b8 00 00 00 00       	mov    $0x0,%eax
  4024ee:	48 89 f7             	mov    %rsi,%rdi
  4024f1:	f3 48 ab             	rep stos %rax,%es:(%rdi)
  4024f4:	4c 89 ef             	mov    %r13,%rdi
  4024f7:	e8 0f fb ff ff       	callq  40200b <urlencode>
  4024fc:	85 c0                	test   %eax,%eax
  4024fe:	0f 89 8a 00 00 00    	jns    40258e <submitr+0x347>
  402504:	48 b8 45 72 72 6f 72 	movabs $0x52203a726f727245,%rax
  40250b:	3a 20 52 
  40250e:	48 89 03             	mov    %rax,(%rbx)
  402511:	48 b8 65 73 75 6c 74 	movabs $0x747320746c757365,%rax
  402518:	20 73 74 
  40251b:	48 89 43 08          	mov    %rax,0x8(%rbx)
  40251f:	48 b8 72 69 6e 67 20 	movabs $0x6e6f6320676e6972,%rax
  402526:	63 6f 6e 
  402529:	48 89 43 10          	mov    %rax,0x10(%rbx)
  40252d:	48 b8 74 61 69 6e 73 	movabs $0x6e6120736e696174,%rax
  402534:	20 61 6e 
  402537:	48 89 43 18          	mov    %rax,0x18(%rbx)
  40253b:	48 b8 20 69 6c 6c 65 	movabs $0x6c6167656c6c6920,%rax
  402542:	67 61 6c 
  402545:	48 89 43 20          	mov    %rax,0x20(%rbx)
  402549:	48 b8 20 6f 72 20 75 	movabs $0x72706e7520726f20,%rax
  402550:	6e 70 72 
  402553:	48 89 43 28          	mov    %rax,0x28(%rbx)
  402557:	48 b8 69 6e 74 61 62 	movabs $0x20656c6261746e69,%rax
  40255e:	6c 65 20 
  402561:	48 89 43 30          	mov    %rax,0x30(%rbx)
  402565:	48 b8 63 68 61 72 61 	movabs $0x6574636172616863,%rax
  40256c:	63 74 65 
  40256f:	48 89 43 38          	mov    %rax,0x38(%rbx)
  402573:	66 c7 43 40 72 2e    	movw   $0x2e72,0x40(%rbx)
  402579:	c6 43 42 00          	movb   $0x0,0x42(%rbx)
  40257d:	89 ef                	mov    %ebp,%edi
  40257f:	e8 9c e7 ff ff       	callq  400d20 <close@plt>
  402584:	b8 ff ff ff ff       	mov    $0xffffffff,%eax
  402589:	e9 ee 03 00 00       	jmpq   40297c <submitr+0x735>
  40258e:	4d 89 e1             	mov    %r12,%r9
  402591:	4c 8d 84 24 20 40 00 	lea    0x4020(%rsp),%r8
  402598:	00 
  402599:	4c 89 f9             	mov    %r15,%rcx
  40259c:	4c 89 f2             	mov    %r14,%rdx
  40259f:	be e8 33 40 00       	mov    $0x4033e8,%esi
  4025a4:	48 8d bc 24 20 60 00 	lea    0x6020(%rsp),%rdi
  4025ab:	00 
  4025ac:	b8 00 00 00 00       	mov    $0x0,%eax
  4025b1:	e8 8a e8 ff ff       	callq  400e40 <sprintf@plt>
  4025b6:	48 8d bc 24 20 60 00 	lea    0x6020(%rsp),%rdi
  4025bd:	00 
  4025be:	b8 00 00 00 00       	mov    $0x0,%eax
  4025c3:	48 c7 c1 ff ff ff ff 	mov    $0xffffffffffffffff,%rcx
  4025ca:	f2 ae                	repnz scas %es:(%rdi),%al
  4025cc:	48 f7 d1             	not    %rcx
  4025cf:	48 8d 51 ff          	lea    -0x1(%rcx),%rdx
  4025d3:	48 8d b4 24 20 60 00 	lea    0x6020(%rsp),%rsi
  4025da:	00 
  4025db:	89 ef                	mov    %ebp,%edi
  4025dd:	e8 ff fa ff ff       	callq  4020e1 <rio_writen>
  4025e2:	48 85 c0             	test   %rax,%rax
  4025e5:	79 6e                	jns    402655 <submitr+0x40e>
  4025e7:	48 b8 45 72 72 6f 72 	movabs $0x43203a726f727245,%rax
  4025ee:	3a 20 43 
  4025f1:	48 89 03             	mov    %rax,(%rbx)
  4025f4:	48 b8 6c 69 65 6e 74 	movabs $0x6e7520746e65696c,%rax
  4025fb:	20 75 6e 
  4025fe:	48 89 43 08          	mov    %rax,0x8(%rbx)
  402602:	48 b8 61 62 6c 65 20 	movabs $0x206f7420656c6261,%rax
  402609:	74 6f 20 
  40260c:	48 89 43 10          	mov    %rax,0x10(%rbx)
  402610:	48 b8 77 72 69 74 65 	movabs $0x6f74206574697277,%rax
  402617:	20 74 6f 
  40261a:	48 89 43 18          	mov    %rax,0x18(%rbx)
  40261e:	48 b8 20 74 68 65 20 	movabs $0x7365722065687420,%rax
  402625:	72 65 73 
  402628:	48 89 43 20          	mov    %rax,0x20(%rbx)
  40262c:	48 b8 75 6c 74 20 73 	movabs $0x7672657320746c75,%rax
  402633:	65 72 76 
  402636:	48 89 43 28          	mov    %rax,0x28(%rbx)
  40263a:	66 c7 43 30 65 72    	movw   $0x7265,0x30(%rbx)
  402640:	c6 43 32 00          	movb   $0x0,0x32(%rbx)
  402644:	89 ef                	mov    %ebp,%edi
  402646:	e8 d5 e6 ff ff       	callq  400d20 <close@plt>
  40264b:	b8 ff ff ff ff       	mov    $0xffffffff,%eax
  402650:	e9 27 03 00 00       	jmpq   40297c <submitr+0x735>
  402655:	89 ee                	mov    %ebp,%esi
  402657:	48 8d bc 24 20 80 00 	lea    0x8020(%rsp),%rdi
  40265e:	00 
  40265f:	e8 6c f9 ff ff       	callq  401fd0 <rio_readinitb>
  402664:	ba 00 20 00 00       	mov    $0x2000,%edx
  402669:	48 8d b4 24 20 60 00 	lea    0x6020(%rsp),%rsi
  402670:	00 
  402671:	48 8d bc 24 20 80 00 	lea    0x8020(%rsp),%rdi
  402678:	00 
  402679:	e8 46 fb ff ff       	callq  4021c4 <rio_readlineb>
  40267e:	48 85 c0             	test   %rax,%rax
  402681:	7f 7d                	jg     402700 <submitr+0x4b9>
  402683:	48 b8 45 72 72 6f 72 	movabs $0x43203a726f727245,%rax
  40268a:	3a 20 43 
  40268d:	48 89 03             	mov    %rax,(%rbx)
  402690:	48 b8 6c 69 65 6e 74 	movabs $0x6e7520746e65696c,%rax
  402697:	20 75 6e 
  40269a:	48 89 43 08          	mov    %rax,0x8(%rbx)
  40269e:	48 b8 61 62 6c 65 20 	movabs $0x206f7420656c6261,%rax
  4026a5:	74 6f 20 
  4026a8:	48 89 43 10          	mov    %rax,0x10(%rbx)
  4026ac:	48 b8 72 65 61 64 20 	movabs $0x7269662064616572,%rax
  4026b3:	66 69 72 
  4026b6:	48 89 43 18          	mov    %rax,0x18(%rbx)
  4026ba:	48 b8 73 74 20 68 65 	movabs $0x6564616568207473,%rax
  4026c1:	61 64 65 
  4026c4:	48 89 43 20          	mov    %rax,0x20(%rbx)
  4026c8:	48 b8 72 20 66 72 6f 	movabs $0x72206d6f72662072,%rax
  4026cf:	6d 20 72 
  4026d2:	48 89 43 28          	mov    %rax,0x28(%rbx)
  4026d6:	48 b8 65 73 75 6c 74 	movabs $0x657320746c757365,%rax
  4026dd:	20 73 65 
  4026e0:	48 89 43 30          	mov    %rax,0x30(%rbx)
  4026e4:	c7 43 38 72 76 65 72 	movl   $0x72657672,0x38(%rbx)
  4026eb:	c6 43 3c 00          	movb   $0x0,0x3c(%rbx)
  4026ef:	89 ef                	mov    %ebp,%edi
  4026f1:	e8 2a e6 ff ff       	callq  400d20 <close@plt>
  4026f6:	b8 ff ff ff ff       	mov    $0xffffffff,%eax
  4026fb:	e9 7c 02 00 00       	jmpq   40297c <submitr+0x735>
  402700:	4c 8d 44 24 10       	lea    0x10(%rsp),%r8
  402705:	48 8d 8c 24 1c 20 00 	lea    0x201c(%rsp),%rcx
  40270c:	00 
  40270d:	48 8d 94 24 20 20 00 	lea    0x2020(%rsp),%rdx
  402714:	00 
  402715:	be 5f 34 40 00       	mov    $0x40345f,%esi
  40271a:	48 8d bc 24 20 60 00 	lea    0x6020(%rsp),%rdi
  402721:	00 
  402722:	b8 00 00 00 00       	mov    $0x0,%eax
  402727:	e8 a4 e6 ff ff       	callq  400dd0 <__isoc99_sscanf@plt>
  40272c:	41 bc 0d 00 00 00    	mov    $0xd,%r12d
  402732:	41 bd 0a 00 00 00    	mov    $0xa,%r13d
  402738:	e9 98 00 00 00       	jmpq   4027d5 <submitr+0x58e>
  40273d:	ba 00 20 00 00       	mov    $0x2000,%edx
  402742:	48 8d b4 24 20 60 00 	lea    0x6020(%rsp),%rsi
  402749:	00 
  40274a:	48 8d bc 24 20 80 00 	lea    0x8020(%rsp),%rdi
  402751:	00 
  402752:	e8 6d fa ff ff       	callq  4021c4 <rio_readlineb>
  402757:	48 85 c0             	test   %rax,%rax
  40275a:	7f 79                	jg     4027d5 <submitr+0x58e>
  40275c:	48 b8 45 72 72 6f 72 	movabs $0x43203a726f727245,%rax
  402763:	3a 20 43 
  402766:	48 89 03             	mov    %rax,(%rbx)
  402769:	48 b8 6c 69 65 6e 74 	movabs $0x6e7520746e65696c,%rax
  402770:	20 75 6e 
  402773:	48 89 43 08          	mov    %rax,0x8(%rbx)
  402777:	48 b8 61 62 6c 65 20 	movabs $0x206f7420656c6261,%rax
  40277e:	74 6f 20 
  402781:	48 89 43 10          	mov    %rax,0x10(%rbx)
  402785:	48 b8 72 65 61 64 20 	movabs $0x6165682064616572,%rax
  40278c:	68 65 61 
  40278f:	48 89 43 18          	mov    %rax,0x18(%rbx)
  402793:	48 b8 64 65 72 73 20 	movabs $0x6f72662073726564,%rax
  40279a:	66 72 6f 
  40279d:	48 89 43 20          	mov    %rax,0x20(%rbx)
  4027a1:	48 b8 6d 20 74 68 65 	movabs $0x657220656874206d,%rax
  4027a8:	20 72 65 
  4027ab:	48 89 43 28          	mov    %rax,0x28(%rbx)
  4027af:	48 b8 73 75 6c 74 20 	movabs $0x72657320746c7573,%rax
  4027b6:	73 65 72 
  4027b9:	48 89 43 30          	mov    %rax,0x30(%rbx)
  4027bd:	c7 43 38 76 65 72 00 	movl   $0x726576,0x38(%rbx)
  4027c4:	89 ef                	mov    %ebp,%edi
  4027c6:	e8 55 e5 ff ff       	callq  400d20 <close@plt>
  4027cb:	b8 ff ff ff ff       	mov    $0xffffffff,%eax
  4027d0:	e9 a7 01 00 00       	jmpq   40297c <submitr+0x735>
  4027d5:	0f b6 84 24 20 60 00 	movzbl 0x6020(%rsp),%eax
  4027dc:	00 
  4027dd:	44 89 e6             	mov    %r12d,%esi
  4027e0:	29 c6                	sub    %eax,%esi
  4027e2:	89 f0                	mov    %esi,%eax
  4027e4:	75 1b                	jne    402801 <submitr+0x5ba>
  4027e6:	0f b6 84 24 21 60 00 	movzbl 0x6021(%rsp),%eax
  4027ed:	00 
  4027ee:	44 89 ea             	mov    %r13d,%edx
  4027f1:	29 c2                	sub    %eax,%edx
  4027f3:	89 d0                	mov    %edx,%eax
  4027f5:	75 0a                	jne    402801 <submitr+0x5ba>
  4027f7:	0f b6 84 24 22 60 00 	movzbl 0x6022(%rsp),%eax
  4027fe:	00 
  4027ff:	f7 d8                	neg    %eax
  402801:	85 c0                	test   %eax,%eax
  402803:	0f 85 34 ff ff ff    	jne    40273d <submitr+0x4f6>
  402809:	ba 00 20 00 00       	mov    $0x2000,%edx
  40280e:	48 8d b4 24 20 60 00 	lea    0x6020(%rsp),%rsi
  402815:	00 
  402816:	48 8d bc 24 20 80 00 	lea    0x8020(%rsp),%rdi
  40281d:	00 
  40281e:	e8 a1 f9 ff ff       	callq  4021c4 <rio_readlineb>
  402823:	48 85 c0             	test   %rax,%rax
  402826:	0f 8f 83 00 00 00    	jg     4028af <submitr+0x668>
  40282c:	48 b8 45 72 72 6f 72 	movabs $0x43203a726f727245,%rax
  402833:	3a 20 43 
  402836:	48 89 03             	mov    %rax,(%rbx)
  402839:	48 b8 6c 69 65 6e 74 	movabs $0x6e7520746e65696c,%rax
  402840:	20 75 6e 
  402843:	48 89 43 08          	mov    %rax,0x8(%rbx)
  402847:	48 b8 61 62 6c 65 20 	movabs $0x206f7420656c6261,%rax
  40284e:	74 6f 20 
  402851:	48 89 43 10          	mov    %rax,0x10(%rbx)
  402855:	48 b8 72 65 61 64 20 	movabs $0x6174732064616572,%rax
  40285c:	73 74 61 
  40285f:	48 89 43 18          	mov    %rax,0x18(%rbx)
  402863:	48 b8 74 75 73 20 6d 	movabs $0x7373656d20737574,%rax
  40286a:	65 73 73 
  40286d:	48 89 43 20          	mov    %rax,0x20(%rbx)
  402871:	48 b8 61 67 65 20 66 	movabs $0x6d6f726620656761,%rax
  402878:	72 6f 6d 
  40287b:	48 89 43 28          	mov    %rax,0x28(%rbx)
  40287f:	48 b8 20 72 65 73 75 	movabs $0x20746c7573657220,%rax
  402886:	6c 74 20 
  402889:	48 89 43 30          	mov    %rax,0x30(%rbx)
  40288d:	c7 43 38 73 65 72 76 	movl   $0x76726573,0x38(%rbx)
  402894:	66 c7 43 3c 65 72    	movw   $0x7265,0x3c(%rbx)
  40289a:	c6 43 3e 00          	movb   $0x0,0x3e(%rbx)
  40289e:	89 ef                	mov    %ebp,%edi
  4028a0:	e8 7b e4 ff ff       	callq  400d20 <close@plt>
  4028a5:	b8 ff ff ff ff       	mov    $0xffffffff,%eax
  4028aa:	e9 cd 00 00 00       	jmpq   40297c <submitr+0x735>
  4028af:	8b 94 24 1c 20 00 00 	mov    0x201c(%rsp),%edx
  4028b6:	81 fa c8 00 00 00    	cmp    $0xc8,%edx
  4028bc:	74 28                	je     4028e6 <submitr+0x69f>
  4028be:	48 8d 4c 24 10       	lea    0x10(%rsp),%rcx
  4028c3:	be 28 34 40 00       	mov    $0x403428,%esi
  4028c8:	48 89 df             	mov    %rbx,%rdi
  4028cb:	b8 00 00 00 00       	mov    $0x0,%eax
  4028d0:	e8 6b e5 ff ff       	callq  400e40 <sprintf@plt>
  4028d5:	89 ef                	mov    %ebp,%edi
  4028d7:	e8 44 e4 ff ff       	callq  400d20 <close@plt>
  4028dc:	b8 ff ff ff ff       	mov    $0xffffffff,%eax
  4028e1:	e9 96 00 00 00       	jmpq   40297c <submitr+0x735>
  4028e6:	48 8d b4 24 20 60 00 	lea    0x6020(%rsp),%rsi
  4028ed:	00 
  4028ee:	48 89 df             	mov    %rbx,%rdi
  4028f1:	e8 ba e3 ff ff       	callq  400cb0 <strcpy@plt>
  4028f6:	89 ef                	mov    %ebp,%edi
  4028f8:	e8 23 e4 ff ff       	callq  400d20 <close@plt>
  4028fd:	0f b6 03             	movzbl (%rbx),%eax
  402900:	ba 4f 00 00 00       	mov    $0x4f,%edx
  402905:	29 c2                	sub    %eax,%edx
  402907:	75 22                	jne    40292b <submitr+0x6e4>
  402909:	0f b6 4b 01          	movzbl 0x1(%rbx),%ecx
  40290d:	b8 4b 00 00 00       	mov    $0x4b,%eax
  402912:	29 c8                	sub    %ecx,%eax
  402914:	75 17                	jne    40292d <submitr+0x6e6>
  402916:	0f b6 4b 02          	movzbl 0x2(%rbx),%ecx
  40291a:	b8 0a 00 00 00       	mov    $0xa,%eax
  40291f:	29 c8                	sub    %ecx,%eax
  402921:	75 0a                	jne    40292d <submitr+0x6e6>
  402923:	0f b6 43 03          	movzbl 0x3(%rbx),%eax
  402927:	f7 d8                	neg    %eax
  402929:	eb 02                	jmp    40292d <submitr+0x6e6>
  40292b:	89 d0                	mov    %edx,%eax
  40292d:	85 c0                	test   %eax,%eax
  40292f:	74 38                	je     402969 <submitr+0x722>
  402931:	bf 70 34 40 00       	mov    $0x403470,%edi
  402936:	b9 05 00 00 00       	mov    $0x5,%ecx
  40293b:	48 89 de             	mov    %rbx,%rsi
  40293e:	f3 a6                	repz cmpsb %es:(%rdi),%ds:(%rsi)
  402940:	0f 97 c1             	seta   %cl
  402943:	0f 92 c0             	setb   %al
  402946:	38 c1                	cmp    %al,%cl
  402948:	74 26                	je     402970 <submitr+0x729>
  40294a:	85 d2                	test   %edx,%edx
  40294c:	75 10                	jne    40295e <submitr+0x717>
  40294e:	0f b6 43 01          	movzbl 0x1(%rbx),%eax
  402952:	b2 4b                	mov    $0x4b,%dl
  402954:	29 c2                	sub    %eax,%edx
  402956:	75 06                	jne    40295e <submitr+0x717>
  402958:	0f b6 53 02          	movzbl 0x2(%rbx),%edx
  40295c:	f7 da                	neg    %edx
  40295e:	85 d2                	test   %edx,%edx
  402960:	75 15                	jne    402977 <submitr+0x730>
  402962:	b8 00 00 00 00       	mov    $0x0,%eax
  402967:	eb 13                	jmp    40297c <submitr+0x735>
  402969:	b8 00 00 00 00       	mov    $0x0,%eax
  40296e:	eb 0c                	jmp    40297c <submitr+0x735>
  402970:	b8 00 00 00 00       	mov    $0x0,%eax
  402975:	eb 05                	jmp    40297c <submitr+0x735>
  402977:	b8 ff ff ff ff       	mov    $0xffffffff,%eax
  40297c:	48 81 c4 48 a0 00 00 	add    $0xa048,%rsp
  402983:	5b                   	pop    %rbx
  402984:	5d                   	pop    %rbp
  402985:	41 5c                	pop    %r12
  402987:	41 5d                	pop    %r13
  402989:	41 5e                	pop    %r14
  40298b:	41 5f                	pop    %r15
  40298d:	c3                   	retq   

000000000040298e <init_timeout>:
  40298e:	53                   	push   %rbx
  40298f:	89 fb                	mov    %edi,%ebx
  402991:	85 ff                	test   %edi,%edi
  402993:	74 1f                	je     4029b4 <init_timeout+0x26>
  402995:	85 ff                	test   %edi,%edi
  402997:	79 05                	jns    40299e <init_timeout+0x10>
  402999:	bb 00 00 00 00       	mov    $0x0,%ebx
  40299e:	be e2 1f 40 00       	mov    $0x401fe2,%esi
  4029a3:	bf 0e 00 00 00       	mov    $0xe,%edi
  4029a8:	e8 a3 e3 ff ff       	callq  400d50 <signal@plt>
  4029ad:	89 df                	mov    %ebx,%edi
  4029af:	e8 5c e3 ff ff       	callq  400d10 <alarm@plt>
  4029b4:	5b                   	pop    %rbx
  4029b5:	c3                   	retq   

00000000004029b6 <init_driver>:
  4029b6:	55                   	push   %rbp
  4029b7:	53                   	push   %rbx
  4029b8:	48 83 ec 18          	sub    $0x18,%rsp
  4029bc:	48 89 fd             	mov    %rdi,%rbp
  4029bf:	be 01 00 00 00       	mov    $0x1,%esi
  4029c4:	bf 0d 00 00 00       	mov    $0xd,%edi
  4029c9:	e8 82 e3 ff ff       	callq  400d50 <signal@plt>
  4029ce:	be 01 00 00 00       	mov    $0x1,%esi
  4029d3:	bf 1d 00 00 00       	mov    $0x1d,%edi
  4029d8:	e8 73 e3 ff ff       	callq  400d50 <signal@plt>
  4029dd:	be 01 00 00 00       	mov    $0x1,%esi
  4029e2:	bf 1d 00 00 00       	mov    $0x1d,%edi
  4029e7:	e8 64 e3 ff ff       	callq  400d50 <signal@plt>
  4029ec:	ba 00 00 00 00       	mov    $0x0,%edx
  4029f1:	be 01 00 00 00       	mov    $0x1,%esi
  4029f6:	bf 02 00 00 00       	mov    $0x2,%edi
  4029fb:	e8 70 e4 ff ff       	callq  400e70 <socket@plt>
  402a00:	89 c3                	mov    %eax,%ebx
  402a02:	85 c0                	test   %eax,%eax
  402a04:	79 4f                	jns    402a55 <init_driver+0x9f>
  402a06:	48 b8 45 72 72 6f 72 	movabs $0x43203a726f727245,%rax
  402a0d:	3a 20 43 
  402a10:	48 89 45 00          	mov    %rax,0x0(%rbp)
  402a14:	48 b8 6c 69 65 6e 74 	movabs $0x6e7520746e65696c,%rax
  402a1b:	20 75 6e 
  402a1e:	48 89 45 08          	mov    %rax,0x8(%rbp)
  402a22:	48 b8 61 62 6c 65 20 	movabs $0x206f7420656c6261,%rax
  402a29:	74 6f 20 
  402a2c:	48 89 45 10          	mov    %rax,0x10(%rbp)
  402a30:	48 b8 63 72 65 61 74 	movabs $0x7320657461657263,%rax
  402a37:	65 20 73 
  402a3a:	48 89 45 18          	mov    %rax,0x18(%rbp)
  402a3e:	c7 45 20 6f 63 6b 65 	movl   $0x656b636f,0x20(%rbp)
  402a45:	66 c7 45 24 74 00    	movw   $0x74,0x24(%rbp)
  402a4b:	b8 ff ff ff ff       	mov    $0xffffffff,%eax
  402a50:	e9 23 01 00 00       	jmpq   402b78 <init_driver+0x1c2>
  402a55:	bf 75 34 40 00       	mov    $0x403475,%edi
  402a5a:	e8 01 e3 ff ff       	callq  400d60 <gethostbyname@plt>
  402a5f:	48 85 c0             	test   %rax,%rax
  402a62:	75 68                	jne    402acc <init_driver+0x116>
  402a64:	48 b8 45 72 72 6f 72 	movabs $0x44203a726f727245,%rax
  402a6b:	3a 20 44 
  402a6e:	48 89 45 00          	mov    %rax,0x0(%rbp)
  402a72:	48 b8 4e 53 20 69 73 	movabs $0x6e7520736920534e,%rax
  402a79:	20 75 6e 
  402a7c:	48 89 45 08          	mov    %rax,0x8(%rbp)
  402a80:	48 b8 61 62 6c 65 20 	movabs $0x206f7420656c6261,%rax
  402a87:	74 6f 20 
  402a8a:	48 89 45 10          	mov    %rax,0x10(%rbp)
  402a8e:	48 b8 72 65 73 6f 6c 	movabs $0x2065766c6f736572,%rax
  402a95:	76 65 20 
  402a98:	48 89 45 18          	mov    %rax,0x18(%rbp)
  402a9c:	48 b8 73 65 72 76 65 	movabs $0x6120726576726573,%rax
  402aa3:	72 20 61 
  402aa6:	48 89 45 20          	mov    %rax,0x20(%rbp)
  402aaa:	c7 45 28 64 64 72 65 	movl   $0x65726464,0x28(%rbp)
  402ab1:	66 c7 45 2c 73 73    	movw   $0x7373,0x2c(%rbp)
  402ab7:	c6 45 2e 00          	movb   $0x0,0x2e(%rbp)
  402abb:	89 df                	mov    %ebx,%edi
  402abd:	e8 5e e2 ff ff       	callq  400d20 <close@plt>
  402ac2:	b8 ff ff ff ff       	mov    $0xffffffff,%eax
  402ac7:	e9 ac 00 00 00       	jmpq   402b78 <init_driver+0x1c2>
  402acc:	48 c7 04 24 00 00 00 	movq   $0x0,(%rsp)
  402ad3:	00 
  402ad4:	48 c7 44 24 08 00 00 	movq   $0x0,0x8(%rsp)
  402adb:	00 00 
  402add:	66 c7 04 24 02 00    	movw   $0x2,(%rsp)
  402ae3:	48 8b 48 18          	mov    0x18(%rax),%rcx
  402ae7:	48 63 50 14          	movslq 0x14(%rax),%rdx
  402aeb:	48 8d 74 24 04       	lea    0x4(%rsp),%rsi
  402af0:	48 8b 39             	mov    (%rcx),%rdi
  402af3:	e8 f8 e2 ff ff       	callq  400df0 <bcopy@plt>
  402af8:	66 c7 44 24 02 3c 9a 	movw   $0x9a3c,0x2(%rsp)
  402aff:	ba 10 00 00 00       	mov    $0x10,%edx
  402b04:	48 89 e6             	mov    %rsp,%rsi
  402b07:	89 df                	mov    %ebx,%edi
  402b09:	e8 52 e3 ff ff       	callq  400e60 <connect@plt>
  402b0e:	85 c0                	test   %eax,%eax
  402b10:	79 50                	jns    402b62 <init_driver+0x1ac>
  402b12:	48 b8 45 72 72 6f 72 	movabs $0x55203a726f727245,%rax
  402b19:	3a 20 55 
  402b1c:	48 89 45 00          	mov    %rax,0x0(%rbp)
  402b20:	48 b8 6e 61 62 6c 65 	movabs $0x6f7420656c62616e,%rax
  402b27:	20 74 6f 
  402b2a:	48 89 45 08          	mov    %rax,0x8(%rbp)
  402b2e:	48 b8 20 63 6f 6e 6e 	movabs $0x7463656e6e6f6320,%rax
  402b35:	65 63 74 
  402b38:	48 89 45 10          	mov    %rax,0x10(%rbp)
  402b3c:	48 b8 20 74 6f 20 73 	movabs $0x76726573206f7420,%rax
  402b43:	65 72 76 
  402b46:	48 89 45 18          	mov    %rax,0x18(%rbp)
  402b4a:	66 c7 45 20 65 72    	movw   $0x7265,0x20(%rbp)
  402b50:	c6 45 22 00          	movb   $0x0,0x22(%rbp)
  402b54:	89 df                	mov    %ebx,%edi
  402b56:	e8 c5 e1 ff ff       	callq  400d20 <close@plt>
  402b5b:	b8 ff ff ff ff       	mov    $0xffffffff,%eax
  402b60:	eb 16                	jmp    402b78 <init_driver+0x1c2>
  402b62:	89 df                	mov    %ebx,%edi
  402b64:	e8 b7 e1 ff ff       	callq  400d20 <close@plt>
  402b69:	66 c7 45 00 4f 4b    	movw   $0x4b4f,0x0(%rbp)
  402b6f:	c6 45 02 00          	movb   $0x0,0x2(%rbp)
  402b73:	b8 00 00 00 00       	mov    $0x0,%eax
  402b78:	48 83 c4 18          	add    $0x18,%rsp
  402b7c:	5b                   	pop    %rbx
  402b7d:	5d                   	pop    %rbp
  402b7e:	c3                   	retq   

0000000000402b7f <driver_post>:
  402b7f:	53                   	push   %rbx
  402b80:	48 83 ec 10          	sub    $0x10,%rsp
  402b84:	4c 89 cb             	mov    %r9,%rbx
  402b87:	45 85 c0             	test   %r8d,%r8d
  402b8a:	74 22                	je     402bae <driver_post+0x2f>
  402b8c:	48 89 ce             	mov    %rcx,%rsi
  402b8f:	bf 87 34 40 00       	mov    $0x403487,%edi
  402b94:	b8 00 00 00 00       	mov    $0x0,%eax
  402b99:	e8 52 e1 ff ff       	callq  400cf0 <printf@plt>
  402b9e:	66 c7 03 4f 4b       	movw   $0x4b4f,(%rbx)
  402ba3:	c6 43 02 00          	movb   $0x0,0x2(%rbx)
  402ba7:	b8 00 00 00 00       	mov    $0x0,%eax
  402bac:	eb 39                	jmp    402be7 <driver_post+0x68>
  402bae:	48 85 ff             	test   %rdi,%rdi
  402bb1:	74 26                	je     402bd9 <driver_post+0x5a>
  402bb3:	80 3f 00             	cmpb   $0x0,(%rdi)
  402bb6:	74 21                	je     402bd9 <driver_post+0x5a>
  402bb8:	4c 89 0c 24          	mov    %r9,(%rsp)
  402bbc:	49 89 c9             	mov    %rcx,%r9
  402bbf:	49 89 d0             	mov    %rdx,%r8
  402bc2:	48 89 f9             	mov    %rdi,%rcx
  402bc5:	48 89 f2             	mov    %rsi,%rdx
  402bc8:	be 9a 3c 00 00       	mov    $0x3c9a,%esi
  402bcd:	bf 75 34 40 00       	mov    $0x403475,%edi
  402bd2:	e8 70 f6 ff ff       	callq  402247 <submitr>
  402bd7:	eb 0e                	jmp    402be7 <driver_post+0x68>
  402bd9:	66 c7 03 4f 4b       	movw   $0x4b4f,(%rbx)
  402bde:	c6 43 02 00          	movb   $0x0,0x2(%rbx)
  402be2:	b8 00 00 00 00       	mov    $0x0,%eax
  402be7:	48 83 c4 10          	add    $0x10,%rsp
  402beb:	5b                   	pop    %rbx
  402bec:	c3                   	retq   

0000000000402bed <check>:
  402bed:	89 f8                	mov    %edi,%eax
  402bef:	c1 e8 1c             	shr    $0x1c,%eax
  402bf2:	85 c0                	test   %eax,%eax
  402bf4:	74 1d                	je     402c13 <check+0x26>
  402bf6:	b9 00 00 00 00       	mov    $0x0,%ecx
  402bfb:	eb 0b                	jmp    402c08 <check+0x1b>
  402bfd:	89 f8                	mov    %edi,%eax
  402bff:	d3 e8                	shr    %cl,%eax
  402c01:	3c 0a                	cmp    $0xa,%al
  402c03:	74 14                	je     402c19 <check+0x2c>
  402c05:	83 c1 08             	add    $0x8,%ecx
  402c08:	83 f9 1f             	cmp    $0x1f,%ecx
  402c0b:	7e f0                	jle    402bfd <check+0x10>
  402c0d:	b8 01 00 00 00       	mov    $0x1,%eax
  402c12:	c3                   	retq   
  402c13:	b8 00 00 00 00       	mov    $0x0,%eax
  402c18:	c3                   	retq   
  402c19:	b8 00 00 00 00       	mov    $0x0,%eax
  402c1e:	c3                   	retq   

0000000000402c1f <gencookie>:
  402c1f:	53                   	push   %rbx
  402c20:	83 c7 01             	add    $0x1,%edi
  402c23:	e8 68 e0 ff ff       	callq  400c90 <srandom@plt>
  402c28:	e8 83 e1 ff ff       	callq  400db0 <random@plt>
  402c2d:	89 c3                	mov    %eax,%ebx
  402c2f:	89 c7                	mov    %eax,%edi
  402c31:	e8 b7 ff ff ff       	callq  402bed <check>
  402c36:	85 c0                	test   %eax,%eax
  402c38:	74 ee                	je     402c28 <gencookie+0x9>
  402c3a:	89 d8                	mov    %ebx,%eax
  402c3c:	5b                   	pop    %rbx
  402c3d:	c3                   	retq   
  402c3e:	66 90                	xchg   %ax,%ax

0000000000402c40 <__libc_csu_init>:
  402c40:	41 57                	push   %r15
  402c42:	41 89 ff             	mov    %edi,%r15d
  402c45:	41 56                	push   %r14
  402c47:	49 89 f6             	mov    %rsi,%r14
  402c4a:	41 55                	push   %r13
  402c4c:	49 89 d5             	mov    %rdx,%r13
  402c4f:	41 54                	push   %r12
  402c51:	4c 8d 25 a8 21 20 00 	lea    0x2021a8(%rip),%r12        # 604e00 <__frame_dummy_init_array_entry>
  402c58:	55                   	push   %rbp
  402c59:	48 8d 2d a8 21 20 00 	lea    0x2021a8(%rip),%rbp        # 604e08 <__init_array_end>
  402c60:	53                   	push   %rbx
  402c61:	4c 29 e5             	sub    %r12,%rbp
  402c64:	31 db                	xor    %ebx,%ebx
  402c66:	48 c1 fd 03          	sar    $0x3,%rbp
  402c6a:	48 83 ec 08          	sub    $0x8,%rsp
  402c6e:	e8 dd df ff ff       	callq  400c50 <_init>
  402c73:	48 85 ed             	test   %rbp,%rbp
  402c76:	74 1e                	je     402c96 <__libc_csu_init+0x56>
  402c78:	0f 1f 84 00 00 00 00 	nopl   0x0(%rax,%rax,1)
  402c7f:	00 
  402c80:	4c 89 ea             	mov    %r13,%rdx
  402c83:	4c 89 f6             	mov    %r14,%rsi
  402c86:	44 89 ff             	mov    %r15d,%edi
  402c89:	41 ff 14 dc          	callq  *(%r12,%rbx,8)
  402c8d:	48 83 c3 01          	add    $0x1,%rbx
  402c91:	48 39 eb             	cmp    %rbp,%rbx
  402c94:	75 ea                	jne    402c80 <__libc_csu_init+0x40>
  402c96:	48 83 c4 08          	add    $0x8,%rsp
  402c9a:	5b                   	pop    %rbx
  402c9b:	5d                   	pop    %rbp
  402c9c:	41 5c                	pop    %r12
  402c9e:	41 5d                	pop    %r13
  402ca0:	41 5e                	pop    %r14
  402ca2:	41 5f                	pop    %r15
  402ca4:	c3                   	retq   
  402ca5:	90                   	nop
  402ca6:	66 2e 0f 1f 84 00 00 	nopw   %cs:0x0(%rax,%rax,1)
  402cad:	00 00 00 

0000000000402cb0 <__libc_csu_fini>:
  402cb0:	f3 c3                	repz retq 

Disassembly of section .fini:

0000000000402cb4 <_fini>:
  402cb4:	48 83 ec 08          	sub    $0x8,%rsp
  402cb8:	48 83 c4 08          	add    $0x8,%rsp
  402cbc:	c3                   	retq   
